
Optional file libmchp_peripheral.a not found

Optional file libmchp_peripheral_32MX795F512L.a not found
Archive member included because of file (symbol)

c:/program files (x86)/microchip/xc32/v1.42/bin/bin/../../lib/gcc/pic32mx/4.8.3/../../../../pic32mx/lib\libpic32.a(memcpy.o)
                              build/milestone1/production/_ext/1241959881/queue.o (memcpy)
c:/program files (x86)/microchip/xc32/v1.42/bin/bin/../../lib/gcc/pic32mx/4.8.3/../../../../pic32mx/lib\libpic32.a(memset.o)
                              build/milestone1/production/_ext/1241959881/tasks.o (memset)
c:/program files (x86)/microchip/xc32/v1.42/bin/bin/../../lib/gcc/pic32mx/4.8.3/../../../../pic32mx/lib\libpic32.a(strcpy.o)
                              build/milestone1/production/_ext/1360937237/communication.o (strcpy)
c:/program files (x86)/microchip/xc32/v1.42/bin/bin/../../lib/gcc/pic32mx/4.8.3/../../../../pic32mx/lib\libpic32.a(strlen.o)
                              build/milestone1/production/_ext/1360937237/communication.o (strlen)
c:/program files (x86)/microchip/xc32/v1.42/bin/bin/../../lib/gcc/pic32mx/4.8.3/../../../../pic32mx/lib\libpic32.a(default-bootstrap-exception-handler.o)
                              c:/program files (x86)/microchip/xc32/v1.42/bin/bin/../../lib/gcc/pic32mx/4.8.3/../../../../pic32mx/lib/./proc/32MX795F512L/crt0_mips32r2.o (_bootstrap_exception_handler)
c:/program files (x86)/microchip/xc32/v1.42/bin/bin/../../lib/gcc/pic32mx/4.8.3/../../../../pic32mx/lib\libpic32.a(default-on-reset.o)
                              c:/program files (x86)/microchip/xc32/v1.42/bin/bin/../../lib/gcc/pic32mx/4.8.3/../../../../pic32mx/lib/./proc/32MX795F512L/crt0_mips32r2.o (_on_reset)
c:/program files (x86)/microchip/xc32/v1.42/bin/bin/../../lib/gcc/pic32mx/4.8.3/../../../../pic32mx/lib\libpic32.a(default-on-bootstrap.o)
                              c:/program files (x86)/microchip/xc32/v1.42/bin/bin/../../lib/gcc/pic32mx/4.8.3/../../../../pic32mx/lib/./proc/32MX795F512L/crt0_mips32r2.o (_on_bootstrap)
c:/program files (x86)/microchip/xc32/v1.42/bin/bin/../../lib/gcc/pic32mx/4.8.3/../../../../pic32mx/lib\libpic32.a(default-nmi-handler.o)
                              c:/program files (x86)/microchip/xc32/v1.42/bin/bin/../../lib/gcc/pic32mx/4.8.3/../../../../pic32mx/lib/./proc/32MX795F512L/crt0_mips32r2.o (_nmi_handler)
c:/program files (x86)/microchip/xc32/v1.42/bin/bin/../../lib/gcc/pic32mx/4.8.3/../../../../pic32mx/lib\libpic32.a(general-exception.o)
                              c:/program files (x86)/microchip/xc32/v1.42/bin/bin/../../lib/gcc/pic32mx/4.8.3/../../../../pic32mx/lib/./proc/32MX795F512L/crt0_mips32r2.o (_general_exception_context)
c:/program files (x86)/microchip/xc32/v1.42/bin/bin/../../lib/gcc/pic32mx/4.8.3/../../../../pic32mx/lib\libpic32.a(vector0.o)
                              c:/program files (x86)/microchip/xc32/v1.42/bin/bin/../../lib/gcc/pic32mx/4.8.3/../../../../pic32mx/lib/./proc/32MX795F512L\default_isr_vectors.o (__vector_dispatch_0)
c:/program files (x86)/microchip/xc32/v1.42/bin/bin/../../lib/gcc/pic32mx/4.8.3/../../../../pic32mx/lib\libpic32.a(vector2.o)
                              c:/program files (x86)/microchip/xc32/v1.42/bin/bin/../../lib/gcc/pic32mx/4.8.3/../../../../pic32mx/lib/./proc/32MX795F512L\default_isr_vectors.o (__vector_dispatch_2)
c:/program files (x86)/microchip/xc32/v1.42/bin/bin/../../lib/gcc/pic32mx/4.8.3/../../../../pic32mx/lib\libpic32.a(vector3.o)
                              c:/program files (x86)/microchip/xc32/v1.42/bin/bin/../../lib/gcc/pic32mx/4.8.3/../../../../pic32mx/lib/./proc/32MX795F512L\default_isr_vectors.o (__vector_dispatch_3)
c:/program files (x86)/microchip/xc32/v1.42/bin/bin/../../lib/gcc/pic32mx/4.8.3/../../../../pic32mx/lib\libpic32.a(vector5.o)
                              c:/program files (x86)/microchip/xc32/v1.42/bin/bin/../../lib/gcc/pic32mx/4.8.3/../../../../pic32mx/lib/./proc/32MX795F512L\default_isr_vectors.o (__vector_dispatch_5)
c:/program files (x86)/microchip/xc32/v1.42/bin/bin/../../lib/gcc/pic32mx/4.8.3/../../../../pic32mx/lib\libpic32.a(vector6.o)
                              c:/program files (x86)/microchip/xc32/v1.42/bin/bin/../../lib/gcc/pic32mx/4.8.3/../../../../pic32mx/lib/./proc/32MX795F512L\default_isr_vectors.o (__vector_dispatch_6)
c:/program files (x86)/microchip/xc32/v1.42/bin/bin/../../lib/gcc/pic32mx/4.8.3/../../../../pic32mx/lib\libpic32.a(vector7.o)
                              c:/program files (x86)/microchip/xc32/v1.42/bin/bin/../../lib/gcc/pic32mx/4.8.3/../../../../pic32mx/lib/./proc/32MX795F512L\default_isr_vectors.o (__vector_dispatch_7)
c:/program files (x86)/microchip/xc32/v1.42/bin/bin/../../lib/gcc/pic32mx/4.8.3/../../../../pic32mx/lib\libpic32.a(vector9.o)
                              c:/program files (x86)/microchip/xc32/v1.42/bin/bin/../../lib/gcc/pic32mx/4.8.3/../../../../pic32mx/lib/./proc/32MX795F512L\default_isr_vectors.o (__vector_dispatch_9)
c:/program files (x86)/microchip/xc32/v1.42/bin/bin/../../lib/gcc/pic32mx/4.8.3/../../../../pic32mx/lib\libpic32.a(vector10.o)
                              c:/program files (x86)/microchip/xc32/v1.42/bin/bin/../../lib/gcc/pic32mx/4.8.3/../../../../pic32mx/lib/./proc/32MX795F512L\default_isr_vectors.o (__vector_dispatch_10)
c:/program files (x86)/microchip/xc32/v1.42/bin/bin/../../lib/gcc/pic32mx/4.8.3/../../../../pic32mx/lib\libpic32.a(vector11.o)
                              c:/program files (x86)/microchip/xc32/v1.42/bin/bin/../../lib/gcc/pic32mx/4.8.3/../../../../pic32mx/lib/./proc/32MX795F512L\default_isr_vectors.o (__vector_dispatch_11)
c:/program files (x86)/microchip/xc32/v1.42/bin/bin/../../lib/gcc/pic32mx/4.8.3/../../../../pic32mx/lib\libpic32.a(vector13.o)
                              c:/program files (x86)/microchip/xc32/v1.42/bin/bin/../../lib/gcc/pic32mx/4.8.3/../../../../pic32mx/lib/./proc/32MX795F512L\default_isr_vectors.o (__vector_dispatch_13)
c:/program files (x86)/microchip/xc32/v1.42/bin/bin/../../lib/gcc/pic32mx/4.8.3/../../../../pic32mx/lib\libpic32.a(vector14.o)
                              c:/program files (x86)/microchip/xc32/v1.42/bin/bin/../../lib/gcc/pic32mx/4.8.3/../../../../pic32mx/lib/./proc/32MX795F512L\default_isr_vectors.o (__vector_dispatch_14)
c:/program files (x86)/microchip/xc32/v1.42/bin/bin/../../lib/gcc/pic32mx/4.8.3/../../../../pic32mx/lib\libpic32.a(vector15.o)
                              c:/program files (x86)/microchip/xc32/v1.42/bin/bin/../../lib/gcc/pic32mx/4.8.3/../../../../pic32mx/lib/./proc/32MX795F512L\default_isr_vectors.o (__vector_dispatch_15)
c:/program files (x86)/microchip/xc32/v1.42/bin/bin/../../lib/gcc/pic32mx/4.8.3/../../../../pic32mx/lib\libpic32.a(vector17.o)
                              c:/program files (x86)/microchip/xc32/v1.42/bin/bin/../../lib/gcc/pic32mx/4.8.3/../../../../pic32mx/lib/./proc/32MX795F512L\default_isr_vectors.o (__vector_dispatch_17)
c:/program files (x86)/microchip/xc32/v1.42/bin/bin/../../lib/gcc/pic32mx/4.8.3/../../../../pic32mx/lib\libpic32.a(vector18.o)
                              c:/program files (x86)/microchip/xc32/v1.42/bin/bin/../../lib/gcc/pic32mx/4.8.3/../../../../pic32mx/lib/./proc/32MX795F512L\default_isr_vectors.o (__vector_dispatch_18)
c:/program files (x86)/microchip/xc32/v1.42/bin/bin/../../lib/gcc/pic32mx/4.8.3/../../../../pic32mx/lib\libpic32.a(vector19.o)
                              c:/program files (x86)/microchip/xc32/v1.42/bin/bin/../../lib/gcc/pic32mx/4.8.3/../../../../pic32mx/lib/./proc/32MX795F512L\default_isr_vectors.o (__vector_dispatch_19)
c:/program files (x86)/microchip/xc32/v1.42/bin/bin/../../lib/gcc/pic32mx/4.8.3/../../../../pic32mx/lib\libpic32.a(vector21.o)
                              c:/program files (x86)/microchip/xc32/v1.42/bin/bin/../../lib/gcc/pic32mx/4.8.3/../../../../pic32mx/lib/./proc/32MX795F512L\default_isr_vectors.o (__vector_dispatch_21)
c:/program files (x86)/microchip/xc32/v1.42/bin/bin/../../lib/gcc/pic32mx/4.8.3/../../../../pic32mx/lib\libpic32.a(vector22.o)
                              c:/program files (x86)/microchip/xc32/v1.42/bin/bin/../../lib/gcc/pic32mx/4.8.3/../../../../pic32mx/lib/./proc/32MX795F512L\default_isr_vectors.o (__vector_dispatch_22)
c:/program files (x86)/microchip/xc32/v1.42/bin/bin/../../lib/gcc/pic32mx/4.8.3/../../../../pic32mx/lib\libpic32.a(vector23.o)
                              c:/program files (x86)/microchip/xc32/v1.42/bin/bin/../../lib/gcc/pic32mx/4.8.3/../../../../pic32mx/lib/./proc/32MX795F512L\default_isr_vectors.o (__vector_dispatch_23)
c:/program files (x86)/microchip/xc32/v1.42/bin/bin/../../lib/gcc/pic32mx/4.8.3/../../../../pic32mx/lib\libpic32.a(vector25.o)
                              c:/program files (x86)/microchip/xc32/v1.42/bin/bin/../../lib/gcc/pic32mx/4.8.3/../../../../pic32mx/lib/./proc/32MX795F512L\default_isr_vectors.o (__vector_dispatch_25)
c:/program files (x86)/microchip/xc32/v1.42/bin/bin/../../lib/gcc/pic32mx/4.8.3/../../../../pic32mx/lib\libpic32.a(vector26.o)
                              c:/program files (x86)/microchip/xc32/v1.42/bin/bin/../../lib/gcc/pic32mx/4.8.3/../../../../pic32mx/lib/./proc/32MX795F512L\default_isr_vectors.o (__vector_dispatch_26)
c:/program files (x86)/microchip/xc32/v1.42/bin/bin/../../lib/gcc/pic32mx/4.8.3/../../../../pic32mx/lib\libpic32.a(vector27.o)
                              c:/program files (x86)/microchip/xc32/v1.42/bin/bin/../../lib/gcc/pic32mx/4.8.3/../../../../pic32mx/lib/./proc/32MX795F512L\default_isr_vectors.o (__vector_dispatch_27)
c:/program files (x86)/microchip/xc32/v1.42/bin/bin/../../lib/gcc/pic32mx/4.8.3/../../../../pic32mx/lib\libpic32.a(vector28.o)
                              c:/program files (x86)/microchip/xc32/v1.42/bin/bin/../../lib/gcc/pic32mx/4.8.3/../../../../pic32mx/lib/./proc/32MX795F512L\default_isr_vectors.o (__vector_dispatch_28)
c:/program files (x86)/microchip/xc32/v1.42/bin/bin/../../lib/gcc/pic32mx/4.8.3/../../../../pic32mx/lib\libpic32.a(vector29.o)
                              c:/program files (x86)/microchip/xc32/v1.42/bin/bin/../../lib/gcc/pic32mx/4.8.3/../../../../pic32mx/lib/./proc/32MX795F512L\default_isr_vectors.o (__vector_dispatch_29)
c:/program files (x86)/microchip/xc32/v1.42/bin/bin/../../lib/gcc/pic32mx/4.8.3/../../../../pic32mx/lib\libpic32.a(vector30.o)
                              c:/program files (x86)/microchip/xc32/v1.42/bin/bin/../../lib/gcc/pic32mx/4.8.3/../../../../pic32mx/lib/./proc/32MX795F512L\default_isr_vectors.o (__vector_dispatch_30)
c:/program files (x86)/microchip/xc32/v1.42/bin/bin/../../lib/gcc/pic32mx/4.8.3/../../../../pic32mx/lib\libpic32.a(vector31.o)
                              c:/program files (x86)/microchip/xc32/v1.42/bin/bin/../../lib/gcc/pic32mx/4.8.3/../../../../pic32mx/lib/./proc/32MX795F512L\default_isr_vectors.o (__vector_dispatch_31)
c:/program files (x86)/microchip/xc32/v1.42/bin/bin/../../lib/gcc/pic32mx/4.8.3/../../../../pic32mx/lib\libpic32.a(vector32.o)
                              c:/program files (x86)/microchip/xc32/v1.42/bin/bin/../../lib/gcc/pic32mx/4.8.3/../../../../pic32mx/lib/./proc/32MX795F512L\default_isr_vectors.o (__vector_dispatch_32)
c:/program files (x86)/microchip/xc32/v1.42/bin/bin/../../lib/gcc/pic32mx/4.8.3/../../../../pic32mx/lib\libpic32.a(vector33.o)
                              c:/program files (x86)/microchip/xc32/v1.42/bin/bin/../../lib/gcc/pic32mx/4.8.3/../../../../pic32mx/lib/./proc/32MX795F512L\default_isr_vectors.o (__vector_dispatch_33)
c:/program files (x86)/microchip/xc32/v1.42/bin/bin/../../lib/gcc/pic32mx/4.8.3/../../../../pic32mx/lib\libpic32.a(vector34.o)
                              c:/program files (x86)/microchip/xc32/v1.42/bin/bin/../../lib/gcc/pic32mx/4.8.3/../../../../pic32mx/lib/./proc/32MX795F512L\default_isr_vectors.o (__vector_dispatch_34)
c:/program files (x86)/microchip/xc32/v1.42/bin/bin/../../lib/gcc/pic32mx/4.8.3/../../../../pic32mx/lib\libpic32.a(vector35.o)
                              c:/program files (x86)/microchip/xc32/v1.42/bin/bin/../../lib/gcc/pic32mx/4.8.3/../../../../pic32mx/lib/./proc/32MX795F512L\default_isr_vectors.o (__vector_dispatch_35)
c:/program files (x86)/microchip/xc32/v1.42/bin/bin/../../lib/gcc/pic32mx/4.8.3/../../../../pic32mx/lib\libpic32.a(vector36.o)
                              c:/program files (x86)/microchip/xc32/v1.42/bin/bin/../../lib/gcc/pic32mx/4.8.3/../../../../pic32mx/lib/./proc/32MX795F512L\default_isr_vectors.o (__vector_dispatch_36)
c:/program files (x86)/microchip/xc32/v1.42/bin/bin/../../lib/gcc/pic32mx/4.8.3/../../../../pic32mx/lib\libpic32.a(vector37.o)
                              c:/program files (x86)/microchip/xc32/v1.42/bin/bin/../../lib/gcc/pic32mx/4.8.3/../../../../pic32mx/lib/./proc/32MX795F512L\default_isr_vectors.o (__vector_dispatch_37)
c:/program files (x86)/microchip/xc32/v1.42/bin/bin/../../lib/gcc/pic32mx/4.8.3/../../../../pic32mx/lib\libpic32.a(vector38.o)
                              c:/program files (x86)/microchip/xc32/v1.42/bin/bin/../../lib/gcc/pic32mx/4.8.3/../../../../pic32mx/lib/./proc/32MX795F512L\default_isr_vectors.o (__vector_dispatch_38)
c:/program files (x86)/microchip/xc32/v1.42/bin/bin/../../lib/gcc/pic32mx/4.8.3/../../../../pic32mx/lib\libpic32.a(vector39.o)
                              c:/program files (x86)/microchip/xc32/v1.42/bin/bin/../../lib/gcc/pic32mx/4.8.3/../../../../pic32mx/lib/./proc/32MX795F512L\default_isr_vectors.o (__vector_dispatch_39)
c:/program files (x86)/microchip/xc32/v1.42/bin/bin/../../lib/gcc/pic32mx/4.8.3/../../../../pic32mx/lib\libpic32.a(vector40.o)
                              c:/program files (x86)/microchip/xc32/v1.42/bin/bin/../../lib/gcc/pic32mx/4.8.3/../../../../pic32mx/lib/./proc/32MX795F512L\default_isr_vectors.o (__vector_dispatch_40)
c:/program files (x86)/microchip/xc32/v1.42/bin/bin/../../lib/gcc/pic32mx/4.8.3/../../../../pic32mx/lib\libpic32.a(vector41.o)
                              c:/program files (x86)/microchip/xc32/v1.42/bin/bin/../../lib/gcc/pic32mx/4.8.3/../../../../pic32mx/lib/./proc/32MX795F512L\default_isr_vectors.o (__vector_dispatch_41)
c:/program files (x86)/microchip/xc32/v1.42/bin/bin/../../lib/gcc/pic32mx/4.8.3/../../../../pic32mx/lib\libpic32.a(vector42.o)
                              c:/program files (x86)/microchip/xc32/v1.42/bin/bin/../../lib/gcc/pic32mx/4.8.3/../../../../pic32mx/lib/./proc/32MX795F512L\default_isr_vectors.o (__vector_dispatch_42)
c:/program files (x86)/microchip/xc32/v1.42/bin/bin/../../lib/gcc/pic32mx/4.8.3/../../../../pic32mx/lib\libpic32.a(vector43.o)
                              c:/program files (x86)/microchip/xc32/v1.42/bin/bin/../../lib/gcc/pic32mx/4.8.3/../../../../pic32mx/lib/./proc/32MX795F512L\default_isr_vectors.o (__vector_dispatch_43)
c:/program files (x86)/microchip/xc32/v1.42/bin/bin/../../lib/gcc/pic32mx/4.8.3/../../../../pic32mx/lib\libpic32.a(vector44.o)
                              c:/program files (x86)/microchip/xc32/v1.42/bin/bin/../../lib/gcc/pic32mx/4.8.3/../../../../pic32mx/lib/./proc/32MX795F512L\default_isr_vectors.o (__vector_dispatch_44)
c:/program files (x86)/microchip/xc32/v1.42/bin/bin/../../lib/gcc/pic32mx/4.8.3/../../../../pic32mx/lib\libpic32.a(vector45.o)
                              c:/program files (x86)/microchip/xc32/v1.42/bin/bin/../../lib/gcc/pic32mx/4.8.3/../../../../pic32mx/lib/./proc/32MX795F512L\default_isr_vectors.o (__vector_dispatch_45)
c:/program files (x86)/microchip/xc32/v1.42/bin/bin/../../lib/gcc/pic32mx/4.8.3/../../../../pic32mx/lib\libpic32.a(vector46.o)
                              c:/program files (x86)/microchip/xc32/v1.42/bin/bin/../../lib/gcc/pic32mx/4.8.3/../../../../pic32mx/lib/./proc/32MX795F512L\default_isr_vectors.o (__vector_dispatch_46)
c:/program files (x86)/microchip/xc32/v1.42/bin/bin/../../lib/gcc/pic32mx/4.8.3/../../../../pic32mx/lib\libpic32.a(vector47.o)
                              c:/program files (x86)/microchip/xc32/v1.42/bin/bin/../../lib/gcc/pic32mx/4.8.3/../../../../pic32mx/lib/./proc/32MX795F512L\default_isr_vectors.o (__vector_dispatch_47)
c:/program files (x86)/microchip/xc32/v1.42/bin/bin/../../lib/gcc/pic32mx/4.8.3/../../../../pic32mx/lib\libpic32.a(vector48.o)
                              c:/program files (x86)/microchip/xc32/v1.42/bin/bin/../../lib/gcc/pic32mx/4.8.3/../../../../pic32mx/lib/./proc/32MX795F512L\default_isr_vectors.o (__vector_dispatch_48)
c:/program files (x86)/microchip/xc32/v1.42/bin/bin/../../lib/gcc/pic32mx/4.8.3/../../../../pic32mx/lib\libpic32.a(vector49.o)
                              c:/program files (x86)/microchip/xc32/v1.42/bin/bin/../../lib/gcc/pic32mx/4.8.3/../../../../pic32mx/lib/./proc/32MX795F512L\default_isr_vectors.o (__vector_dispatch_49)
c:/program files (x86)/microchip/xc32/v1.42/bin/bin/../../lib/gcc/pic32mx/4.8.3/../../../../pic32mx/lib\libpic32.a(vector50.o)
                              c:/program files (x86)/microchip/xc32/v1.42/bin/bin/../../lib/gcc/pic32mx/4.8.3/../../../../pic32mx/lib/./proc/32MX795F512L\default_isr_vectors.o (__vector_dispatch_50)
c:/program files (x86)/microchip/xc32/v1.42/bin/bin/../../lib/gcc/pic32mx/4.8.3/../../../../pic32mx/lib\libpic32.a(vector51.o)
                              c:/program files (x86)/microchip/xc32/v1.42/bin/bin/../../lib/gcc/pic32mx/4.8.3/../../../../pic32mx/lib/./proc/32MX795F512L\default_isr_vectors.o (__vector_dispatch_51)
c:/program files (x86)/microchip/xc32/v1.42/bin/bin/../../lib/gcc/pic32mx/4.8.3/../../../../pic32mx/lib\libpic32.a(defaultinterrupt.o)
                              c:/program files (x86)/microchip/xc32/v1.42/bin/bin/../../lib/gcc/pic32mx/4.8.3/../../../../pic32mx/lib\libpic32.a(vector0.o) (_DefaultInterrupt)
c:/program files (x86)/microchip/xc32/v1.42/bin/bin/../../lib/gcc/pic32mx/4.8.3/../../../../pic32mx/lib\libc.a(atoi.o)
                              build/milestone1/production/_ext/1360937237/myjson.o (atoi)
c:/program files (x86)/microchip/xc32/v1.42/bin/bin/../../lib/gcc/pic32mx/4.8.3/../../../../pic32mx/lib\libc.a(ctype.o)
                              c:/program files (x86)/microchip/xc32/v1.42/bin/bin/../../lib/gcc/pic32mx/4.8.3/../../../../pic32mx/lib\libc.a(atoi.o) (_ctype)
c:/program files (x86)/microchip/xc32/v1.42/bin/bin/../../lib/gcc/pic32mx/4.8.3/../../../../pic32mx/lib\libc.a(strcat.o)
                              build/milestone1/production/_ext/1360937237/communication.o (strcat)
c:/program files (x86)/microchip/xc32/v1.42/bin/bin/../../lib/gcc/pic32mx/4.8.3/../../../../pic32mx/lib\libc.a(sprintf_cdnopuxX.eo)
                              build/milestone1/production/_ext/1360937237/communication.o (_sprintf_cdnopuxX)
c:/program files (x86)/microchip/xc32/v1.42/bin/bin/../../lib/gcc/pic32mx/4.8.3/../../../../pic32mx/lib\libc.a(doprnt_cdnopuxX.eo)
                              c:/program files (x86)/microchip/xc32/v1.42/bin/bin/../../lib/gcc/pic32mx/4.8.3/../../../../pic32mx/lib\libc.a(sprintf_cdnopuxX.eo) (_vfprintf_cdnopuxX)
c:/program files (x86)/microchip/xc32/v1.42/bin/bin/../../lib/gcc/pic32mx/4.8.3/../../../../pic32mx/lib\libc.a(_fputc_simple.o)
                              c:/program files (x86)/microchip/xc32/v1.42/bin/bin/../../lib/gcc/pic32mx/4.8.3/../../../../pic32mx/lib\libc.a(doprnt_cdnopuxX.eo) (fputc)
c:/program files (x86)/microchip/xc32/v1.42/bin/bin/../../lib/gcc/pic32mx/4.8.3/../../../../pic32mx/lib\libc.a(_iob.o)
                              c:/program files (x86)/microchip/xc32/v1.42/bin/bin/../../lib/gcc/pic32mx/4.8.3/../../../../pic32mx/lib\libc.a(_fputc_simple.o) (_outdone)
c:/program files (x86)/microchip/xc32/v1.42/bin/bin/../../lib/gcc/pic32mx/4.8.3/../../../../pic32mx/lib\libc.a(_flsbuf_simple.o)
                              c:/program files (x86)/microchip/xc32/v1.42/bin/bin/../../lib/gcc/pic32mx/4.8.3/../../../../pic32mx/lib\libc.a(_fputc_simple.o) (_flsbuf)
c:/program files (x86)/microchip/xc32/v1.42/bin/bin/../../lib/gcc/pic32mx/4.8.3/../../../../pic32mx/lib\libpic32.a(write.o)
                              c:/program files (x86)/microchip/xc32/v1.42/bin/bin/../../lib/gcc/pic32mx/4.8.3/../../../../pic32mx/lib\libc.a(_fputc_simple.o) (write)
c:/program files (x86)/microchip/xc32/v1.42/bin/bin/../../lib/gcc/pic32mx/4.8.3/../../../../pic32mx/lib\libpic32.a(_mon_putc.o)
                              c:/program files (x86)/microchip/xc32/v1.42/bin/bin/../../lib/gcc/pic32mx/4.8.3/../../../../pic32mx/lib\libpic32.a(write.o) (_mon_putc)
c:/program files (x86)/microchip/xc32/v1.42/bin/bin/../../lib/gcc/pic32mx/4.8.3/../../../../pic32mx/lib\libpic32.a(xc32_uart.o)
                              c:/program files (x86)/microchip/xc32/v1.42/bin/bin/../../lib/gcc/pic32mx/4.8.3/../../../../pic32mx/lib\libpic32.a(_mon_putc.o) (__XC_UART)
c:/program files (x86)/microchip/xc32/v1.42/bin/bin/../../lib/gcc/pic32mx/4.8.3\libgcc.a(_udivdi3.o)
                              c:/program files (x86)/microchip/xc32/v1.42/bin/bin/../../lib/gcc/pic32mx/4.8.3/../../../../pic32mx/lib\libc.a(doprnt_cdnopuxX.eo) (__udivdi3)
c:/program files (x86)/microchip/xc32/v1.42/bin/bin/../../lib/gcc/pic32mx/4.8.3\libgcc.a(_umoddi3.o)
                              c:/program files (x86)/microchip/xc32/v1.42/bin/bin/../../lib/gcc/pic32mx/4.8.3/../../../../pic32mx/lib\libc.a(doprnt_cdnopuxX.eo) (__umoddi3)

Allocating common symbols
Common symbol       size              file

appData             0x4               build/milestone1/production/_ext/1360937237/app.o
app1Iter            0x4               build/milestone1/production/_ext/1360937237/app.o
gDrvUSART0Obj       0x4               build/milestone1/production/_ext/192191419/drv_usart_static.o
sysObj              0x18              build/milestone1/production/_ext/1555642536/system_init.o
navigationData      0x4               build/milestone1/production/_ext/1360937237/navigation.o
bufferToWrite2      0xda              build/milestone1/production/_ext/1360937237/communication.o
global_data         0x4               build/milestone1/production/_ext/1360937237/debug.o
sysDevconObj        0x8               build/milestone1/production/_ext/2019779704/sys_devcon.o
receiveFromWifiBuffer
                    0xd8              build/milestone1/production/_ext/1360937237/communication.o
mappingData         0x4               build/milestone1/production/_ext/1360937237/mapping.o
communicationData   0x4               build/milestone1/production/_ext/1360937237/communication.o

Microchip PIC32 Memory-Usage Report

kseg0 Program-Memory Usage
section                    address  length [bytes]      (dec)  Description
-------                 ----------  -------------------------  -----------
.text._vfprintf_cdnopux 0x9d000000          0xad4        2772   
.text                   0x9d000ad4          0xd10        3344  App's exec code 
.text.COMMUNICATION_Tas 0x9d0017e4          0x2dc         732   
.text.xTaskCreate       0x9d001ac0          0x2d0         720   
.text.xQueueGenericRece 0x9d001d90          0x264         612   
.text.NAVIGATION_Tasks  0x9d001ff4          0x25c         604   
.text.xQueueGenericSend 0x9d002250          0x20c         524   
.DrvTmrInstance0_vector 0x9d00245c          0x1b4         436   
.DrvTmrInstance1_vector 0x9d002610          0x1b4         436   
.DrvTmrInstance2_vector 0x9d0027c4          0x1b4         436   
.DrvTmrInstance3_vector 0x9d002978          0x1b4         436   
.DrvUsartInstance0_vect 0x9d002b2c          0x1b4         436   
.text.xTaskIncrementTic 0x9d002ce0          0x198         408   
.text.DRV_USART0_Initia 0x9d002e78          0x174         372   
.text                   0x9d002fec          0x2d0         720  App's exec code 
.text.xTaskResumeAll    0x9d0032bc          0x148         328   
.text.fputc             0x9d003404          0x144         324   
.dinit                  0x9d003548          0x130         304   
.text.vTaskPriorityInhe 0x9d003678          0x12c         300   
.text._flsbuf           0x9d0037a4          0x12c         300   
.rodata                 0x9d0038d0          0x128         296  Read-only const 
.text.IntHandlerDrvUsar 0x9d0039f8          0x114         276   
.rodata                 0x9d003b0c          0x104         260  Read-only const 
.text.prvUnlockQueue    0x9d003c10           0xfc         252   
.text.APP_Tasks         0x9d003d0c           0xf8         248   
.text.xTaskPriorityDisi 0x9d003e04           0xf8         248   
.text.prvCopyDataToQueu 0x9d003efc           0xf4         244   
.text.MAPPING_Tasks     0x9d003ff0           0xf0         240   
.text.xQueueGenericSend 0x9d0040e0           0xf0         240   
.text.dbgOutputVal      0x9d0041d0           0xf0         240   
.rodata                 0x9d0042c0           0xec         236  Read-only const 
.text.parseInt          0x9d0043ac           0xec         236   
.text.IntHandlerDrvTmrI 0x9d004498           0xe8         232   
.text.prvAddCurrentTask 0x9d004580           0xe4         228   
.text.xQueueReceiveFrom 0x9d004664           0xe0         224   
.text.vTaskSwitchContex 0x9d004744           0xe0         224   
.text.parseUInt8        0x9d004824           0xe0         224   
.text.SYS_Initialize    0x9d004904           0xdc         220   
.text.SYS_Tasks         0x9d0049e0           0xdc         220   
.text.SYS_DEVCON_Perfor 0x9d004abc           0xdc         220   
.text.general_exception 0x9d004b98           0xdc         220   
.text._mon_putc         0x9d004c74           0xd4         212   
.rodata                 0x9d004d48           0xd0         208  Read-only const 
.text.pvPortMalloc      0x9d004e18           0xc0         192   
.text.xQueueGenericRese 0x9d004ed8           0xc0         192   
.text.xTaskRemoveFromEv 0x9d004f98           0xbc         188   
.text.prvIdleTask       0x9d005054           0xb4         180   
.text.readPublic2       0x9d005108           0xa8         168   
.text                   0x9d0051b0           0xa8         168  App's exec code 
.text.atoi              0x9d005258           0xa8         168   
.text.xTaskCheckForTime 0x9d005300           0xa0         160   
.text.jsonFindElementFr 0x9d0053a0           0x9c         156   
.text.write             0x9d00543c           0x9c         156   
.text.xQueueGenericCrea 0x9d0054d8           0x94         148   
.text.parseCheckSum     0x9d00556c           0x94         148   
.text.vTaskStartSchedul 0x9d005600           0x80         128   
.text.DRV_TMR0_Initiali 0x9d005680           0x74         116   
.text.DRV_TMR3_Initiali 0x9d0056f4           0x74         116   
.text.parseCharacter    0x9d005768           0x74         116   
.text.calcSimpleChecksu 0x9d0057dc           0x70         112   
.text.DRV_TMR1_Initiali 0x9d00584c           0x6c         108   
.text.DRV_TMR2_Initiali 0x9d0058b8           0x6c         108   
.text.vApplicationSetup 0x9d005924           0x6c         108   
.text.vTaskExitCritical 0x9d005990           0x68         104   
.text._sprintf_cdnopuxX 0x9d0059f8           0x68         104   
.text.PID1              0x9d005a60           0x60          96   
.text.PID2              0x9d005ac0           0x60          96   
.text.xPortStartSchedul 0x9d005b20           0x5c          92   
.text.vListInsert       0x9d005b7c           0x5c          92   
.text.SYS_CLK_Initializ 0x9d005bd8           0x58          88   
.text.SYS_DEVCON_System 0x9d005c30           0x58          88   
.text.xQueueCreateMutex 0x9d005c88           0x58          88   
.text.jsonGetSource     0x9d005ce0           0x58          88   
.text.jsonGetDestinatio 0x9d005d38           0x58          88   
.text.jsonGetMessageTyp 0x9d005d90           0x58          88   
.text.jsonGetChecksum   0x9d005de8           0x58          88   
.text.jsonGetChecksumSt 0x9d005e40           0x58          88   
.text.jsonGetSequenceNu 0x9d005e98           0x58          88   
.text.main_entry        0x9d005ef0           0x54          84   
.text.COMMUNICATION_Ini 0x9d005f44           0x54          84   
.text.pxPortInitialiseS 0x9d005f98           0x54          84   
.text.vPortIncrementTic 0x9d005fec           0x54          84   
.rodata                 0x9d006040           0x50          80  Read-only const 
.text.prvCopyDataFromQu 0x9d006090           0x50          80   
.text.vTaskEnterCritica 0x9d0060e0           0x50          80   
.text.IntHandlerDrvTmrI 0x9d006130           0x48          72   
.text.writePublic       0x9d006178           0x48          72   
.text.SYS_DEVCON_System 0x9d0061c0           0x48          72   
.text._bootstrap_except 0x9d006208           0x48          72   
.vector_default         0x9d006250           0x48          72   
.text.uxListRemove      0x9d006298           0x44          68   
.text                   0x9d0062dc           0x44          68  App's exec code 
.text.SYS_PORTS_Initial 0x9d006320           0x40          64   
.text._general_exceptio 0x9d006360           0x40          64   
.text.DRV_TMR0_Start    0x9d0063a0           0x3c          60   
.text.DRV_TMR1_Start    0x9d0063dc           0x3c          60   
.text.DRV_TMR2_Start    0x9d006418           0x3c          60   
.text.DRV_TMR3_Start    0x9d006454           0x3c          60   
.text.APP_Initialize    0x9d006490           0x3c          60   
.text.OSAL_MUTEX_Create 0x9d0064cc           0x3c          60   
.text.uxPortSetInterrup 0x9d006508           0x3c          60   
.text.GetPWMFromValue   0x9d006544           0x3c          60   
.text.NAVIGATION_Initia 0x9d006580           0x38          56   
.text.MAPPING_Initializ 0x9d0065b8           0x38          56   
.text.prvResetNextTaskU 0x9d0065f0           0x38          56   
.text.vTaskPlaceOnEvent 0x9d006628           0x38          56   
.text.DRV_USART_Initial 0x9d006660           0x34          52   
.text.IntHandlerDrvTmrI 0x9d006694           0x34          52   
.text.IntHandlerDrvTmrI 0x9d0066c8           0x34          52   
.text.Motor1SetDirectio 0x9d0066fc           0x34          52   
.text.Motor2SetDirectio 0x9d006730           0x34          52   
.text.Motor2SetPWM      0x9d006764           0x34          52   
.text.vListInsertEnd    0x9d006798           0x30          48   
.text.dbgOutputLoc      0x9d0067c8           0x30          48   
.text.Motor1SetPWM      0x9d0067f8           0x30          48   
.text.vApplicationStack 0x9d006828           0x2c          44   
.text.vApplicationMallo 0x9d006854           0x2c          44   
.text.mapCalculateCheck 0x9d006880           0x2c          44   
.text.commCalculateChec 0x9d0068ac           0x2c          44   
.text.prvTaskExitError  0x9d0068d8           0x2c          44   
.text.navSendMsgFromISR 0x9d006904           0x28          40   
.text.navSendMsg        0x9d00692c           0x28          40   
.text.mapSendMsgFromISR 0x9d006954           0x28          40   
.text.mapSendMsg        0x9d00697c           0x28          40   
.text.commSendMsgFromIS 0x9d0069a4           0x28          40   
.text.commSendMsg       0x9d0069cc           0x28          40   
.text.pvTaskIncrementMu 0x9d0069f4           0x28          40   
.text.uartReceiveFromSe 0x9d006a1c           0x24          36   
.text._SYS_Tasks        0x9d006a40           0x20          32   
.text.main              0x9d006a60           0x20          32   
.text.checkIfSendQueueI 0x9d006a80           0x20          32   
.text.vListInitialise   0x9d006aa0           0x20          32   
.text.navCalculateCheck 0x9d006ac0           0x1c          28   
.text.SYS_DEVCON_JTAGDi 0x9d006adc           0x1c          28   
.text.vPortClearInterru 0x9d006af8           0x1c          28   
.text._COMMUNICATION_Ta 0x9d006b14           0x18          24   
.text._MAPPING_Tasks    0x9d006b2c           0x18          24   
.text._NAVIGATION_Tasks 0x9d006b44           0x18          24   
.text._APP_Tasks        0x9d006b5c           0x18          24   
.text.SYS_INT_Initializ 0x9d006b74           0x18          24   
.text.dbgPauseAll       0x9d006b8c           0x18          24   
.text                   0x9d006ba4           0x18          24  App's exec code 
.text.SYS_DEVCON_Initia 0x9d006bbc           0x14          20   
.text.vTaskSuspendAll   0x9d006bd0           0x14          20   
.text.vTaskSetTimeOutSt 0x9d006be4           0x14          20   
.text.vTaskMissedYield  0x9d006bf8           0x10          16   
.text.SYS_CLK_SystemFre 0x9d006c08            0xc          12   
.text.SYS_CLK_Periphera 0x9d006c14            0xc          12   
.text.xQueueIsQueueEmpt 0x9d006c20            0xc          12   
.text.automatedTesting  0x9d006c2c            0x8           8   
.text.SYS_DEVCON_Tasks  0x9d006c34            0x8           8   
.text.vPortFree         0x9d006c3c            0x8           8   
.text.vListInitialiseIt 0x9d006c44            0x8           8   
.rodata                 0x9d006c4c            0x8           8  Read-only const 
.text._on_reset         0x9d006c54            0x8           8   
.text._on_bootstrap     0x9d006c5c            0x8           8   
.rodata                 0x9d006c64            0x8           8  Read-only const 
      Total kseg0_program_mem used  :      0x6c6c       27756  5.3% of 0x80000

kseg0 Boot-Memory Usage
section                    address  length [bytes]      (dec)  Description
-------                 ----------  -------------------------  -----------
         Total kseg0_boot_mem used  :           0           0  <1% of 0x970

Exception-Memory Usage 
section                    address  length [bytes]      (dec)  Description
-------                 ----------  -------------------------  -----------
.app_excpt              0x9fc01180           0x10          16  General-Exception 
.vector_0               0x9fc01200            0x8           8  Interrupt Vector 0 
.vector_1               0x9fc01220            0x8           8  Interrupt Vector 1 
.vector_2               0x9fc01240            0x8           8  Interrupt Vector 2 
.vector_3               0x9fc01260            0x8           8  Interrupt Vector 3 
.vector_4               0x9fc01280            0x8           8  Interrupt Vector 4 
.vector_5               0x9fc012a0            0x8           8  Interrupt Vector 5 
.vector_6               0x9fc012c0            0x8           8  Interrupt Vector 6 
.vector_7               0x9fc012e0            0x8           8  Interrupt Vector 7 
.vector_8               0x9fc01300           0x10          16  Interrupt Vector 8 
.vector_9               0x9fc01320            0x8           8  Interrupt Vector 9 
.vector_10              0x9fc01340            0x8           8  Interrupt Vector 10 
.vector_11              0x9fc01360            0x8           8  Interrupt Vector 11 
.vector_12              0x9fc01380           0x10          16  Interrupt Vector 12 
.vector_13              0x9fc013a0            0x8           8  Interrupt Vector 13 
.vector_14              0x9fc013c0            0x8           8  Interrupt Vector 14 
.vector_15              0x9fc013e0            0x8           8  Interrupt Vector 15 
.vector_16              0x9fc01400           0x10          16  Interrupt Vector 16 
.vector_17              0x9fc01420            0x8           8  Interrupt Vector 17 
.vector_18              0x9fc01440            0x8           8  Interrupt Vector 18 
.vector_19              0x9fc01460            0x8           8  Interrupt Vector 19 
.vector_20              0x9fc01480           0x10          16  Interrupt Vector 20 
.vector_21              0x9fc014a0            0x8           8  Interrupt Vector 21 
.vector_22              0x9fc014c0            0x8           8  Interrupt Vector 22 
.vector_23              0x9fc014e0            0x8           8  Interrupt Vector 23 
.vector_24              0x9fc01500           0x10          16  Interrupt Vector 24 
.vector_25              0x9fc01520            0x8           8  Interrupt Vector 25 
.vector_26              0x9fc01540            0x8           8  Interrupt Vector 26 
.vector_27              0x9fc01560            0x8           8  Interrupt Vector 27 
.vector_28              0x9fc01580            0x8           8  Interrupt Vector 28 
.vector_29              0x9fc015a0            0x8           8  Interrupt Vector 29 
.vector_30              0x9fc015c0            0x8           8  Interrupt Vector 30 
.vector_31              0x9fc015e0            0x8           8  Interrupt Vector 31 
.vector_32              0x9fc01600            0x8           8  Interrupt Vector 32 
.vector_33              0x9fc01620            0x8           8  Interrupt Vector 33 
.vector_34              0x9fc01640            0x8           8  Interrupt Vector 34 
.vector_35              0x9fc01660            0x8           8  Interrupt Vector 35 
.vector_36              0x9fc01680            0x8           8  Interrupt Vector 36 
.vector_37              0x9fc016a0            0x8           8  Interrupt Vector 37 
.vector_38              0x9fc016c0            0x8           8  Interrupt Vector 38 
.vector_39              0x9fc016e0            0x8           8  Interrupt Vector 39 
.vector_40              0x9fc01700            0x8           8  Interrupt Vector 40 
.vector_41              0x9fc01720            0x8           8  Interrupt Vector 41 
.vector_42              0x9fc01740            0x8           8  Interrupt Vector 42 
.vector_43              0x9fc01760            0x8           8  Interrupt Vector 43 
.vector_44              0x9fc01780            0x8           8  Interrupt Vector 44 
.vector_45              0x9fc017a0            0x8           8  Interrupt Vector 45 
.vector_46              0x9fc017c0            0x8           8  Interrupt Vector 46 
.vector_47              0x9fc017e0            0x8           8  Interrupt Vector 47 
.vector_48              0x9fc01800            0x8           8  Interrupt Vector 48 
.vector_49              0x9fc01820            0x8           8  Interrupt Vector 49 
.vector_50              0x9fc01840            0x8           8  Interrupt Vector 50 
.vector_51              0x9fc01860            0x8           8  Interrupt Vector 51 
          Total exception_mem used  :       0x1d8         472  11.5% of 0x1000

kseg1 Boot-Memory Usage
section                    address  length [bytes]      (dec)  Description
-------                 ----------  -------------------------  -----------
.reset                  0xbfc00000          0x208         520  Reset handler 
.bev_excpt              0xbfc00380           0x10          16  BEV-Exception 
         Total kseg1_boot_mem used  :       0x218         536  45.9% of 0x490
        --------------------------------------------------------------------------
         Total Program Memory used  :      0x705c       28764  5.4% of 0x81e00
        --------------------------------------------------------------------------


kseg1 Data-Memory Usage
section                    address  length [bytes]      (dec)  Description
-------                 ----------  -------------------------  -----------
.sdata                  0xa0000000           0x24          36  Small init data 
.sbss                   0xa0000024           0xcc         204  Small uninit data 
.bss                    0xa00000f0          0x1cc         460  Uninitialized data 
.bss                    0xa00002bc        0x1974c      104268  Uninitialized data 
         Total kseg1_data_mem used  :     0x19a08      104968  80.1% of 0x20000
        --------------------------------------------------------------------------
            Total Data Memory used  :     0x19a08      104968  80.1% of 0x20000
        --------------------------------------------------------------------------


Dynamic Data-Memory Reservation
section                    address  length [bytes]      (dec)  Description
-------                 ----------  -------------------------  -----------
heap                    0xa0019a10              0           0  Reserved for heap 
stack                   0xa0019a28         0x65d0       26064  Reserved for stack 

        --------------------------------------------------------------------------

Discarded input sections

 .text          0x00000000        0x0 c:/program files (x86)/microchip/xc32/v1.42/bin/bin/../../lib/gcc/pic32mx/4.8.3/../../../../pic32mx/lib/./proc/32MX795F512L/crt0_mips32r2.o
 .data          0x00000000        0x0 c:/program files (x86)/microchip/xc32/v1.42/bin/bin/../../lib/gcc/pic32mx/4.8.3/../../../../pic32mx/lib/./proc/32MX795F512L/crt0_mips32r2.o
 .bss           0x00000000        0x0 c:/program files (x86)/microchip/xc32/v1.42/bin/bin/../../lib/gcc/pic32mx/4.8.3/../../../../pic32mx/lib/./proc/32MX795F512L/crt0_mips32r2.o
 .text          0x00000000        0x0 c:/program files (x86)/microchip/xc32/v1.42/bin/bin/../../lib/gcc/pic32mx/4.8.3/../../../../pic32mx/lib\debug-exception-return.o
 .data          0x00000000        0x0 c:/program files (x86)/microchip/xc32/v1.42/bin/bin/../../lib/gcc/pic32mx/4.8.3/../../../../pic32mx/lib\debug-exception-return.o
 .bss           0x00000000        0x0 c:/program files (x86)/microchip/xc32/v1.42/bin/bin/../../lib/gcc/pic32mx/4.8.3/../../../../pic32mx/lib\debug-exception-return.o
 .reginfo       0x00000000       0x18 c:/program files (x86)/microchip/xc32/v1.42/bin/bin/../../lib/gcc/pic32mx/4.8.3/../../../../pic32mx/lib\debug-exception-return.o
 .text          0x00000000        0x0 build/milestone1/production/_ext/1864120335/drv_tmr_static.o
 .data          0x00000000        0x0 build/milestone1/production/_ext/1864120335/drv_tmr_static.o
 .bss           0x00000000        0x0 build/milestone1/production/_ext/1864120335/drv_tmr_static.o
 .reginfo       0x00000000       0x18 build/milestone1/production/_ext/1864120335/drv_tmr_static.o
 .text.DRV_TMR0_Stop
                0x00000000       0x40 build/milestone1/production/_ext/1864120335/drv_tmr_static.o
 .text.DRV_TMR0_ClientStatus
                0x00000000       0x14 build/milestone1/production/_ext/1864120335/drv_tmr_static.o
 .text.DRV_TMR0_CounterValueSet
                0x00000000       0x14 build/milestone1/production/_ext/1864120335/drv_tmr_static.o
 .text.DRV_TMR0_CounterValueGet
                0x00000000       0x10 build/milestone1/production/_ext/1864120335/drv_tmr_static.o
 .text.DRV_TMR0_CounterClear
                0x00000000       0x10 build/milestone1/production/_ext/1864120335/drv_tmr_static.o
 .text.DRV_TMR0_CounterFrequencyGet
                0x00000000       0x4c build/milestone1/production/_ext/1864120335/drv_tmr_static.o
 .text.DRV_TMR0_PrescalerGet
                0x00000000       0xa8 build/milestone1/production/_ext/1864120335/drv_tmr_static.o
 .text.DRV_TMR0_PeriodValueSet
                0x00000000       0x14 build/milestone1/production/_ext/1864120335/drv_tmr_static.o
 .text.DRV_TMR0_PeriodValueGet
                0x00000000       0x10 build/milestone1/production/_ext/1864120335/drv_tmr_static.o
 .text.DRV_TMR0_StopInIdleDisable
                0x00000000       0x18 build/milestone1/production/_ext/1864120335/drv_tmr_static.o
 .text.DRV_TMR0_StopInIdleEnable
                0x00000000       0x18 build/milestone1/production/_ext/1864120335/drv_tmr_static.o
 .text.DRV_TMR0_ClockSet
                0x00000000       0xd4 build/milestone1/production/_ext/1864120335/drv_tmr_static.o
 .text.DRV_TMR1_Stop
                0x00000000       0x40 build/milestone1/production/_ext/1864120335/drv_tmr_static.o
 .text.DRV_TMR1_ClientStatus
                0x00000000       0x14 build/milestone1/production/_ext/1864120335/drv_tmr_static.o
 .text.DRV_TMR1_CounterValueSet
                0x00000000       0x14 build/milestone1/production/_ext/1864120335/drv_tmr_static.o
 .text.DRV_TMR1_CounterValueGet
                0x00000000       0x10 build/milestone1/production/_ext/1864120335/drv_tmr_static.o
 .text.DRV_TMR1_CounterClear
                0x00000000       0x10 build/milestone1/production/_ext/1864120335/drv_tmr_static.o
 .text.DRV_TMR1_CounterFrequencyGet
                0x00000000        0x8 build/milestone1/production/_ext/1864120335/drv_tmr_static.o
 .text.DRV_TMR1_PrescalerGet
                0x00000000       0xa8 build/milestone1/production/_ext/1864120335/drv_tmr_static.o
 .text.DRV_TMR1_PeriodValueSet
                0x00000000       0x14 build/milestone1/production/_ext/1864120335/drv_tmr_static.o
 .text.DRV_TMR1_PeriodValueGet
                0x00000000       0x10 build/milestone1/production/_ext/1864120335/drv_tmr_static.o
 .text.DRV_TMR1_StopInIdleDisable
                0x00000000       0x18 build/milestone1/production/_ext/1864120335/drv_tmr_static.o
 .text.DRV_TMR1_StopInIdleEnable
                0x00000000       0x18 build/milestone1/production/_ext/1864120335/drv_tmr_static.o
 .text.DRV_TMR1_ClockSet
                0x00000000       0xd4 build/milestone1/production/_ext/1864120335/drv_tmr_static.o
 .text.DRV_TMR2_Stop
                0x00000000       0x40 build/milestone1/production/_ext/1864120335/drv_tmr_static.o
 .text.DRV_TMR2_ClientStatus
                0x00000000       0x14 build/milestone1/production/_ext/1864120335/drv_tmr_static.o
 .text.DRV_TMR2_CounterValueSet
                0x00000000       0x14 build/milestone1/production/_ext/1864120335/drv_tmr_static.o
 .text.DRV_TMR2_CounterValueGet
                0x00000000       0x10 build/milestone1/production/_ext/1864120335/drv_tmr_static.o
 .text.DRV_TMR2_CounterClear
                0x00000000       0x10 build/milestone1/production/_ext/1864120335/drv_tmr_static.o
 .text.DRV_TMR2_CounterFrequencyGet
                0x00000000        0x8 build/milestone1/production/_ext/1864120335/drv_tmr_static.o
 .text.DRV_TMR2_PrescalerGet
                0x00000000       0xa8 build/milestone1/production/_ext/1864120335/drv_tmr_static.o
 .text.DRV_TMR2_PeriodValueSet
                0x00000000       0x14 build/milestone1/production/_ext/1864120335/drv_tmr_static.o
 .text.DRV_TMR2_PeriodValueGet
                0x00000000       0x10 build/milestone1/production/_ext/1864120335/drv_tmr_static.o
 .text.DRV_TMR2_StopInIdleDisable
                0x00000000       0x18 build/milestone1/production/_ext/1864120335/drv_tmr_static.o
 .text.DRV_TMR2_StopInIdleEnable
                0x00000000       0x18 build/milestone1/production/_ext/1864120335/drv_tmr_static.o
 .text.DRV_TMR2_ClockSet
                0x00000000       0xd4 build/milestone1/production/_ext/1864120335/drv_tmr_static.o
 .text.DRV_TMR3_Stop
                0x00000000       0x40 build/milestone1/production/_ext/1864120335/drv_tmr_static.o
 .text.DRV_TMR3_ClientStatus
                0x00000000       0x14 build/milestone1/production/_ext/1864120335/drv_tmr_static.o
 .text.DRV_TMR3_CounterValueSet
                0x00000000       0x14 build/milestone1/production/_ext/1864120335/drv_tmr_static.o
 .text.DRV_TMR3_CounterValueGet
                0x00000000       0x10 build/milestone1/production/_ext/1864120335/drv_tmr_static.o
 .text.DRV_TMR3_CounterClear
                0x00000000       0x10 build/milestone1/production/_ext/1864120335/drv_tmr_static.o
 .text.DRV_TMR3_CounterFrequencyGet
                0x00000000       0x4c build/milestone1/production/_ext/1864120335/drv_tmr_static.o
 .text.DRV_TMR3_PrescalerGet
                0x00000000       0xa8 build/milestone1/production/_ext/1864120335/drv_tmr_static.o
 .text.DRV_TMR3_PeriodValueSet
                0x00000000       0x14 build/milestone1/production/_ext/1864120335/drv_tmr_static.o
 .text.DRV_TMR3_PeriodValueGet
                0x00000000       0x10 build/milestone1/production/_ext/1864120335/drv_tmr_static.o
 .text.DRV_TMR3_StopInIdleDisable
                0x00000000       0x18 build/milestone1/production/_ext/1864120335/drv_tmr_static.o
 .text.DRV_TMR3_StopInIdleEnable
                0x00000000       0x18 build/milestone1/production/_ext/1864120335/drv_tmr_static.o
 .text.DRV_TMR3_ClockSet
                0x00000000       0xd4 build/milestone1/production/_ext/1864120335/drv_tmr_static.o
 .text          0x00000000        0x0 build/milestone1/production/_ext/1864120335/drv_tmr_mapping.o
 .data          0x00000000        0x0 build/milestone1/production/_ext/1864120335/drv_tmr_mapping.o
 .bss           0x00000000        0x0 build/milestone1/production/_ext/1864120335/drv_tmr_mapping.o
 .reginfo       0x00000000       0x18 build/milestone1/production/_ext/1864120335/drv_tmr_mapping.o
 .text.DRV_TMR_Open
                0x00000000       0x34 build/milestone1/production/_ext/1864120335/drv_tmr_mapping.o
 .text.DRV_TMR_Close
                0x00000000       0x74 build/milestone1/production/_ext/1864120335/drv_tmr_mapping.o
 .text.DRV_TMR_ClientStatus
                0x00000000       0x84 build/milestone1/production/_ext/1864120335/drv_tmr_mapping.o
 .text.DRV_TMR_CounterValueSet
                0x00000000       0x74 build/milestone1/production/_ext/1864120335/drv_tmr_mapping.o
 .text.DRV_TMR_CounterValueGet
                0x00000000       0x84 build/milestone1/production/_ext/1864120335/drv_tmr_mapping.o
 .text.DRV_TMR_CounterClear
                0x00000000       0x74 build/milestone1/production/_ext/1864120335/drv_tmr_mapping.o
 .text.DRV_TMR_AlarmRegister
                0x00000000        0x8 build/milestone1/production/_ext/1864120335/drv_tmr_mapping.o
 .text.DRV_TMR_AlarmDisable
                0x00000000        0x8 build/milestone1/production/_ext/1864120335/drv_tmr_mapping.o
 .text.DRV_TMR_AlarmEnable
                0x00000000        0x8 build/milestone1/production/_ext/1864120335/drv_tmr_mapping.o
 .text.DRV_TMR_AlarmPeriodSet
                0x00000000        0x8 build/milestone1/production/_ext/1864120335/drv_tmr_mapping.o
 .text.DRV_TMR_AlarmPeriodGet
                0x00000000        0x8 build/milestone1/production/_ext/1864120335/drv_tmr_mapping.o
 .text.DRV_TMR_AlarmDeregister
                0x00000000        0x8 build/milestone1/production/_ext/1864120335/drv_tmr_mapping.o
 .text.DRV_TMR_Start
                0x00000000       0x84 build/milestone1/production/_ext/1864120335/drv_tmr_mapping.o
 .text.DRV_TMR_Stop
                0x00000000       0x74 build/milestone1/production/_ext/1864120335/drv_tmr_mapping.o
 .text.DRV_TMR_AlarmHasElapsed
                0x00000000        0x8 build/milestone1/production/_ext/1864120335/drv_tmr_mapping.o
 .text.DRV_TMR_OperationModeGet
                0x00000000        0x8 build/milestone1/production/_ext/1864120335/drv_tmr_mapping.o
 .text.DRV_TMR_ClockSet
                0x00000000       0x88 build/milestone1/production/_ext/1864120335/drv_tmr_mapping.o
 .text.DRV_TMR_PrescalerGet
                0x00000000       0x84 build/milestone1/production/_ext/1864120335/drv_tmr_mapping.o
 .text.DRV_TMR_GateModeSet
                0x00000000        0x8 build/milestone1/production/_ext/1864120335/drv_tmr_mapping.o
 .text.DRV_TMR_GateModeClear
                0x00000000        0x8 build/milestone1/production/_ext/1864120335/drv_tmr_mapping.o
 .text.DRV_TMR_CounterFrequencyGet
                0x00000000       0x84 build/milestone1/production/_ext/1864120335/drv_tmr_mapping.o
 .text.DRV_TMR_DividerRangeGet
                0x00000000       0x84 build/milestone1/production/_ext/1864120335/drv_tmr_mapping.o
 .text          0x00000000        0x0 build/milestone1/production/_ext/192191419/drv_usart_mapping.o
 .data          0x00000000        0x0 build/milestone1/production/_ext/192191419/drv_usart_mapping.o
 .bss           0x00000000        0x0 build/milestone1/production/_ext/192191419/drv_usart_mapping.o
 .reginfo       0x00000000       0x18 build/milestone1/production/_ext/192191419/drv_usart_mapping.o
 .text.DRV_USART_Deinitialize
                0x00000000       0x28 build/milestone1/production/_ext/192191419/drv_usart_mapping.o
 .text.DRV_USART_Status
                0x00000000       0x30 build/milestone1/production/_ext/192191419/drv_usart_mapping.o
 .text.DRV_USART_TasksTransmit
                0x00000000       0x28 build/milestone1/production/_ext/192191419/drv_usart_mapping.o
 .text.DRV_USART_TasksReceive
                0x00000000       0x28 build/milestone1/production/_ext/192191419/drv_usart_mapping.o
 .text.DRV_USART_TasksError
                0x00000000       0x28 build/milestone1/production/_ext/192191419/drv_usart_mapping.o
 .text.DRV_USART_Open
                0x00000000       0x34 build/milestone1/production/_ext/192191419/drv_usart_mapping.o
 .text.DRV_USART_Close
                0x00000000       0x2c build/milestone1/production/_ext/192191419/drv_usart_mapping.o
 .text.DRV_USART_ClientStatus
                0x00000000       0x34 build/milestone1/production/_ext/192191419/drv_usart_mapping.o
 .text.DRV_USART_TransferStatus
                0x00000000       0x34 build/milestone1/production/_ext/192191419/drv_usart_mapping.o
 .text.DRV_USART_ReadByte
                0x00000000       0x34 build/milestone1/production/_ext/192191419/drv_usart_mapping.o
 .text.DRV_USART_WriteByte
                0x00000000       0x2c build/milestone1/production/_ext/192191419/drv_usart_mapping.o
 .text.DRV_USART_ReceiverBufferSizeGet
                0x00000000       0x34 build/milestone1/production/_ext/192191419/drv_usart_mapping.o
 .text.DRV_USART_TransmitBufferSizeGet
                0x00000000       0x34 build/milestone1/production/_ext/192191419/drv_usart_mapping.o
 .text.DRV_USART_ReceiverBufferIsEmpty
                0x00000000       0x34 build/milestone1/production/_ext/192191419/drv_usart_mapping.o
 .text.DRV_USART_TransmitBufferIsFull
                0x00000000       0x34 build/milestone1/production/_ext/192191419/drv_usart_mapping.o
 .text.DRV_USART_BaudSet
                0x00000000       0x34 build/milestone1/production/_ext/192191419/drv_usart_mapping.o
 .text.DRV_USART_LineControlSet
                0x00000000       0x34 build/milestone1/production/_ext/192191419/drv_usart_mapping.o
 .text          0x00000000        0x0 build/milestone1/production/_ext/192191419/drv_usart_static.o
 .data          0x00000000        0x0 build/milestone1/production/_ext/192191419/drv_usart_static.o
 .bss           0x00000000        0x0 build/milestone1/production/_ext/192191419/drv_usart_static.o
 .reginfo       0x00000000       0x18 build/milestone1/production/_ext/192191419/drv_usart_static.o
 .text.DRV_USART0_Deinitialize
                0x00000000       0x50 build/milestone1/production/_ext/192191419/drv_usart_static.o
 .text.DRV_USART0_Status
                0x00000000        0x8 build/milestone1/production/_ext/192191419/drv_usart_static.o
 .text.DRV_USART0_TasksTransmit
                0x00000000       0x44 build/milestone1/production/_ext/192191419/drv_usart_static.o
 .text.DRV_USART0_TasksReceive
                0x00000000       0x28 build/milestone1/production/_ext/192191419/drv_usart_static.o
 .text.DRV_USART0_TasksError
                0x00000000       0x4c build/milestone1/production/_ext/192191419/drv_usart_static.o
 .text.DRV_USART0_Open
                0x00000000        0x8 build/milestone1/production/_ext/192191419/drv_usart_static.o
 .text.DRV_USART0_Close
                0x00000000        0x8 build/milestone1/production/_ext/192191419/drv_usart_static.o
 .text.DRV_USART0_ClientStatus
                0x00000000        0x8 build/milestone1/production/_ext/192191419/drv_usart_static.o
 .text.DRV_USART0_TransferStatus
                0x00000000       0x48 build/milestone1/production/_ext/192191419/drv_usart_static.o
 .text.DRV_USART0_BaudSet
                0x00000000       0xdc build/milestone1/production/_ext/192191419/drv_usart_static.o
 .text.DRV_USART0_LineControlSet
                0x00000000       0x8c build/milestone1/production/_ext/192191419/drv_usart_static.o
 .text          0x00000000        0x0 build/milestone1/production/_ext/192191419/drv_usart_static_byte_model.o
 .data          0x00000000        0x0 build/milestone1/production/_ext/192191419/drv_usart_static_byte_model.o
 .bss           0x00000000        0x0 build/milestone1/production/_ext/192191419/drv_usart_static_byte_model.o
 .reginfo       0x00000000       0x18 build/milestone1/production/_ext/192191419/drv_usart_static_byte_model.o
 .text.DRV_USART0_ReadByte
                0x00000000       0x50 build/milestone1/production/_ext/192191419/drv_usart_static_byte_model.o
 .text.DRV_USART0_WriteByte
                0x00000000       0x54 build/milestone1/production/_ext/192191419/drv_usart_static_byte_model.o
 .text.DRV_USART0_ReceiverBufferSizeGet
                0x00000000        0x8 build/milestone1/production/_ext/192191419/drv_usart_static_byte_model.o
 .text.DRV_USART0_TransmitBufferSizeGet
                0x00000000        0x8 build/milestone1/production/_ext/192191419/drv_usart_static_byte_model.o
 .text.DRV_USART0_ReceiverBufferIsEmpty
                0x00000000       0x14 build/milestone1/production/_ext/192191419/drv_usart_static_byte_model.o
 .text.DRV_USART0_TransmitBufferIsFull
                0x00000000       0x10 build/milestone1/production/_ext/192191419/drv_usart_static_byte_model.o
 .text          0x00000000        0x0 build/milestone1/production/_ext/383799649/sys_clk_static.o
 .data          0x00000000        0x0 build/milestone1/production/_ext/383799649/sys_clk_static.o
 .bss           0x00000000        0x0 build/milestone1/production/_ext/383799649/sys_clk_static.o
 .reginfo       0x00000000       0x18 build/milestone1/production/_ext/383799649/sys_clk_static.o
 .text.SYS_CLK_ReferenceClockFrequencyGet
                0x00000000        0x8 build/milestone1/production/_ext/383799649/sys_clk_static.o
 .text.SYS_CLK_SecondaryOscillatorEnable
                0x00000000       0x4c build/milestone1/production/_ext/383799649/sys_clk_static.o
 .text.SYS_CLK_SecondaryOscillatorDisable
                0x00000000       0x4c build/milestone1/production/_ext/383799649/sys_clk_static.o
 .text.SYS_CLK_SecondaryOscillatorIsEnabled
                0x00000000       0x10 build/milestone1/production/_ext/383799649/sys_clk_static.o
 .text          0x00000000        0x0 build/milestone1/production/_ext/956857457/sys_ports_static.o
 .data          0x00000000        0x0 build/milestone1/production/_ext/956857457/sys_ports_static.o
 .bss           0x00000000        0x0 build/milestone1/production/_ext/956857457/sys_ports_static.o
 .reginfo       0x00000000       0x18 build/milestone1/production/_ext/956857457/sys_ports_static.o
 .text.SYS_PORTS_Read
                0x00000000       0x38 build/milestone1/production/_ext/956857457/sys_ports_static.o
 .text.SYS_PORTS_Write
                0x00000000       0x2c build/milestone1/production/_ext/956857457/sys_ports_static.o
 .text.SYS_PORTS_Set
                0x00000000       0x38 build/milestone1/production/_ext/956857457/sys_ports_static.o
 .text.SYS_PORTS_Clear
                0x00000000       0x34 build/milestone1/production/_ext/956857457/sys_ports_static.o
 .text.SYS_PORTS_DirectionSelect
                0x00000000       0x6c build/milestone1/production/_ext/956857457/sys_ports_static.o
 .text.SYS_PORTS_DirectionGet
                0x00000000       0x38 build/milestone1/production/_ext/956857457/sys_ports_static.o
 .text.SYS_PORTS_Toggle
                0x00000000       0x34 build/milestone1/production/_ext/956857457/sys_ports_static.o
 .text.SYS_PORTS_OpenDrainEnable
                0x00000000       0x34 build/milestone1/production/_ext/956857457/sys_ports_static.o
 .text.SYS_PORTS_OpenDrainDisable
                0x00000000       0x34 build/milestone1/production/_ext/956857457/sys_ports_static.o
 .text.SYS_PORTS_ChangeNotificationGlobalEnable
                0x00000000       0x1c build/milestone1/production/_ext/956857457/sys_ports_static.o
 .text.SYS_PORTS_ChangeNotificationGlobalDisable
                0x00000000       0x1c build/milestone1/production/_ext/956857457/sys_ports_static.o
 .text.SYS_PORTS_GlobalChangeNotificationDisable
                0x00000000       0x1c build/milestone1/production/_ext/956857457/sys_ports_static.o
 .text.SYS_PORTS_ChangeNotificationEnable
                0x00000000       0x78 build/milestone1/production/_ext/956857457/sys_ports_static.o
 .text.SYS_PORTS_ChangeNotificationDisable
                0x00000000       0x20 build/milestone1/production/_ext/956857457/sys_ports_static.o
 .text.SYS_PORTS_ChangeNotificationInIdleModeEnable
                0x00000000       0x1c build/milestone1/production/_ext/956857457/sys_ports_static.o
 .text.SYS_PORTS_ChangeNotificationInIdleModeDisable
                0x00000000       0x1c build/milestone1/production/_ext/956857457/sys_ports_static.o
 .text.SYS_PORTS_ChangeNotificationPullUpEnable
                0x00000000       0x20 build/milestone1/production/_ext/956857457/sys_ports_static.o
 .text.SYS_PORTS_ChangeNotificationPullUpDisable
                0x00000000       0x20 build/milestone1/production/_ext/956857457/sys_ports_static.o
 .text.SYS_PORTS_PinModeSelect
                0x00000000       0x38 build/milestone1/production/_ext/956857457/sys_ports_static.o
 .text.SYS_PORTS_PinWrite
                0x00000000       0x70 build/milestone1/production/_ext/956857457/sys_ports_static.o
 .text.SYS_PORTS_PinRead
                0x00000000       0x44 build/milestone1/production/_ext/956857457/sys_ports_static.o
 .text.SYS_PORTS_PinToggle
                0x00000000       0x38 build/milestone1/production/_ext/956857457/sys_ports_static.o
 .text.SYS_PORTS_PinSet
                0x00000000       0x38 build/milestone1/production/_ext/956857457/sys_ports_static.o
 .text.SYS_PORTS_PinClear
                0x00000000       0x38 build/milestone1/production/_ext/956857457/sys_ports_static.o
 .text.SYS_PORTS_PinDirectionSelect
                0x00000000       0x78 build/milestone1/production/_ext/956857457/sys_ports_static.o
 .text.SYS_PORTS_PinOpenDrainEnable
                0x00000000       0x38 build/milestone1/production/_ext/956857457/sys_ports_static.o
 .text.SYS_PORTS_PinOpenDrainDisable
                0x00000000       0x38 build/milestone1/production/_ext/956857457/sys_ports_static.o
 .text.SYS_PORTS_RemapInput
                0x00000000        0x8 build/milestone1/production/_ext/956857457/sys_ports_static.o
 .text.SYS_PORTS_RemapOutput
                0x00000000        0x8 build/milestone1/production/_ext/956857457/sys_ports_static.o
 .text          0x00000000        0x0 build/milestone1/production/_ext/1555642536/system_init.o
 .data          0x00000000        0x0 build/milestone1/production/_ext/1555642536/system_init.o
 .bss           0x00000000        0x0 build/milestone1/production/_ext/1555642536/system_init.o
 .reginfo       0x00000000       0x18 build/milestone1/production/_ext/1555642536/system_init.o
 .text          0x00000000        0x0 build/milestone1/production/_ext/1555642536/system_interrupt.o
 .data          0x00000000        0x0 build/milestone1/production/_ext/1555642536/system_interrupt.o
 .bss           0x00000000        0x0 build/milestone1/production/_ext/1555642536/system_interrupt.o
 .reginfo       0x00000000       0x18 build/milestone1/production/_ext/1555642536/system_interrupt.o
 .text          0x00000000        0x0 build/milestone1/production/_ext/1555642536/system_exceptions.o
 .data          0x00000000        0x0 build/milestone1/production/_ext/1555642536/system_exceptions.o
 .bss           0x00000000        0x0 build/milestone1/production/_ext/1555642536/system_exceptions.o
 .reginfo       0x00000000       0x18 build/milestone1/production/_ext/1555642536/system_exceptions.o
 .text          0x00000000        0x0 build/milestone1/production/_ext/1555642536/system_tasks.o
 .data          0x00000000        0x0 build/milestone1/production/_ext/1555642536/system_tasks.o
 .bss           0x00000000        0x0 build/milestone1/production/_ext/1555642536/system_tasks.o
 .reginfo       0x00000000       0x18 build/milestone1/production/_ext/1555642536/system_tasks.o
 .text          0x00000000        0x0 build/milestone1/production/_ext/1555642536/system_interrupt_a.o
 .data          0x00000000        0x0 build/milestone1/production/_ext/1555642536/system_interrupt_a.o
 .bss           0x00000000        0x0 build/milestone1/production/_ext/1555642536/system_interrupt_a.o
 .reginfo       0x00000000       0x18 build/milestone1/production/_ext/1555642536/system_interrupt_a.o
 .text          0x00000000        0x0 build/milestone1/production/_ext/1555642536/rtos_hooks.o
 .data          0x00000000        0x0 build/milestone1/production/_ext/1555642536/rtos_hooks.o
 .bss           0x00000000        0x0 build/milestone1/production/_ext/1555642536/rtos_hooks.o
 .reginfo       0x00000000       0x18 build/milestone1/production/_ext/1555642536/rtos_hooks.o
 .text          0x00000000        0x0 build/milestone1/production/_ext/1360937237/app.o
 .data          0x00000000        0x0 build/milestone1/production/_ext/1360937237/app.o
 .bss           0x00000000        0x0 build/milestone1/production/_ext/1360937237/app.o
 .reginfo       0x00000000       0x18 build/milestone1/production/_ext/1360937237/app.o
 .text.app1SendMsgFromISR
                0x00000000       0x3c build/milestone1/production/_ext/1360937237/app.o
 .text          0x00000000        0x0 build/milestone1/production/_ext/1360937237/main.o
 .data          0x00000000        0x0 build/milestone1/production/_ext/1360937237/main.o
 .bss           0x00000000        0x0 build/milestone1/production/_ext/1360937237/main.o
 .reginfo       0x00000000       0x18 build/milestone1/production/_ext/1360937237/main.o
 .text          0x00000000        0x0 build/milestone1/production/_ext/1360937237/navigation.o
 .data          0x00000000        0x0 build/milestone1/production/_ext/1360937237/navigation.o
 .bss           0x00000000        0x0 build/milestone1/production/_ext/1360937237/navigation.o
 .reginfo       0x00000000       0x18 build/milestone1/production/_ext/1360937237/navigation.o
 .text          0x00000000        0x0 build/milestone1/production/_ext/1360937237/mapping.o
 .data          0x00000000        0x0 build/milestone1/production/_ext/1360937237/mapping.o
 .bss           0x00000000        0x0 build/milestone1/production/_ext/1360937237/mapping.o
 .reginfo       0x00000000       0x18 build/milestone1/production/_ext/1360937237/mapping.o
 .text          0x00000000        0x0 build/milestone1/production/_ext/1360937237/communication.o
 .data          0x00000000        0x0 build/milestone1/production/_ext/1360937237/communication.o
 .bss           0x00000000        0x0 build/milestone1/production/_ext/1360937237/communication.o
 .reginfo       0x00000000       0x18 build/milestone1/production/_ext/1360937237/communication.o
 .text.constructFieldItem
                0x00000000       0x30 build/milestone1/production/_ext/1360937237/communication.o
 .text.calculateJsonStringCheckSum
                0x00000000       0x48 build/milestone1/production/_ext/1360937237/communication.o
 .text.convertFieldItemToJSON
                0x00000000       0xc0 build/milestone1/production/_ext/1360937237/communication.o
 .text.convertSensorMsgToJson
                0x00000000       0x84 build/milestone1/production/_ext/1360937237/communication.o
 .text.convertSensorMsgToJsonWithData
                0x00000000       0x94 build/milestone1/production/_ext/1360937237/communication.o
 .text.commSendMsgToSendQueue
                0x00000000       0xa4 build/milestone1/production/_ext/1360937237/communication.o
 .text.DBGcalculateBADJsonStringCheckSum
                0x00000000       0x48 build/milestone1/production/_ext/1360937237/communication.o
 .text.readPublic
                0x00000000       0x70 build/milestone1/production/_ext/1360937237/communication.o
 .text.readPublicIntoBuffer2
                0x00000000      0x114 build/milestone1/production/_ext/1360937237/communication.o
 .text          0x00000000        0x0 build/milestone1/production/_ext/1360937237/ms2test.o
 .data          0x00000000        0x0 build/milestone1/production/_ext/1360937237/ms2test.o
 .bss           0x00000000        0x0 build/milestone1/production/_ext/1360937237/ms2test.o
 .reginfo       0x00000000       0x18 build/milestone1/production/_ext/1360937237/ms2test.o
 .rodata        0x00000000      0x18c build/milestone1/production/_ext/1360937237/ms2test.o
 .text.mapChecksumTest
                0x00000000       0xd4 build/milestone1/production/_ext/1360937237/ms2test.o
 .text.mapQueueTest
                0x00000000       0xb4 build/milestone1/production/_ext/1360937237/ms2test.o
 .text.mapQueueReceiveTest
                0x00000000       0xa8 build/milestone1/production/_ext/1360937237/ms2test.o
 .text.commChecksumTest
                0x00000000       0x9c build/milestone1/production/_ext/1360937237/ms2test.o
 .text.commQueueTest
                0x00000000       0x7c build/milestone1/production/_ext/1360937237/ms2test.o
 .text.commQueueReceiveTest
                0x00000000       0x70 build/milestone1/production/_ext/1360937237/ms2test.o
 .text.navChecksumTest
                0x00000000       0x7c build/milestone1/production/_ext/1360937237/ms2test.o
 .text.navQueueTest
                0x00000000       0x60 build/milestone1/production/_ext/1360937237/ms2test.o
 .text.navQueueReceiveTest
                0x00000000       0x50 build/milestone1/production/_ext/1360937237/ms2test.o
 .text.encoderSpeedTest
                0x00000000       0xac build/milestone1/production/_ext/1360937237/ms2test.o
 .text          0x00000000        0x0 build/milestone1/production/_ext/1423261102/osal_freertos.o
 .data          0x00000000        0x0 build/milestone1/production/_ext/1423261102/osal_freertos.o
 .bss           0x00000000        0x0 build/milestone1/production/_ext/1423261102/osal_freertos.o
 .reginfo       0x00000000       0x18 build/milestone1/production/_ext/1423261102/osal_freertos.o
 .text.OSAL_CRIT_Enter
                0x00000000       0x48 build/milestone1/production/_ext/1423261102/osal_freertos.o
 .text.OSAL_CRIT_Leave
                0x00000000       0x44 build/milestone1/production/_ext/1423261102/osal_freertos.o
 .text.OSAL_SEM_Create
                0x00000000       0x94 build/milestone1/production/_ext/1423261102/osal_freertos.o
 .text.OSAL_SEM_Delete
                0x00000000       0x30 build/milestone1/production/_ext/1423261102/osal_freertos.o
 .text.OSAL_SEM_Pend
                0x00000000       0x44 build/milestone1/production/_ext/1423261102/osal_freertos.o
 .text.OSAL_SEM_Post
                0x00000000       0x30 build/milestone1/production/_ext/1423261102/osal_freertos.o
 .text.OSAL_SEM_PostISR
                0x00000000       0x4c build/milestone1/production/_ext/1423261102/osal_freertos.o
 .text.OSAL_SEM_GetCount
                0x00000000       0x2c build/milestone1/production/_ext/1423261102/osal_freertos.o
 .text.OSAL_MUTEX_Delete
                0x00000000       0x3c build/milestone1/production/_ext/1423261102/osal_freertos.o
 .text.OSAL_MUTEX_Lock
                0x00000000       0x44 build/milestone1/production/_ext/1423261102/osal_freertos.o
 .text.OSAL_MUTEX_Unlock
                0x00000000       0x30 build/milestone1/production/_ext/1423261102/osal_freertos.o
 .rodata        0x00000000        0xc build/milestone1/production/_ext/1423261102/osal_freertos.o
 .text.OSAL_Name
                0x00000000        0xc build/milestone1/production/_ext/1423261102/osal_freertos.o
 .text.OSAL_Initialize
                0x00000000        0x8 build/milestone1/production/_ext/1423261102/osal_freertos.o
 .text          0x00000000        0x0 build/milestone1/production/_ext/2019779704/sys_devcon.o
 .data          0x00000000        0x0 build/milestone1/production/_ext/2019779704/sys_devcon.o
 .bss           0x00000000        0x0 build/milestone1/production/_ext/2019779704/sys_devcon.o
 .reginfo       0x00000000       0x18 build/milestone1/production/_ext/2019779704/sys_devcon.o
 .text.SYS_DEVCON_Reinitialize
                0x00000000       0x10 build/milestone1/production/_ext/2019779704/sys_devcon.o
 .text.SYS_DEVCON_Deinitialize
                0x00000000        0x8 build/milestone1/production/_ext/2019779704/sys_devcon.o
 .text.SYS_DEVCON_Status
                0x00000000        0x8 build/milestone1/production/_ext/2019779704/sys_devcon.o
 .text.SYS_DEVCON_JTAGEnable
                0x00000000       0x18 build/milestone1/production/_ext/2019779704/sys_devcon.o
 .text.SYS_DEVCON_TraceEnable
                0x00000000       0x18 build/milestone1/production/_ext/2019779704/sys_devcon.o
 .text.SYS_DEVCON_TraceDisable
                0x00000000       0x1c build/milestone1/production/_ext/2019779704/sys_devcon.o
 .text.SYS_DEVCON_PowerModeEnter
                0x00000000       0x54 build/milestone1/production/_ext/2019779704/sys_devcon.o
 .text          0x00000000        0x0 build/milestone1/production/_ext/2019779704/sys_devcon_pic32mx.o
 .data          0x00000000        0x0 build/milestone1/production/_ext/2019779704/sys_devcon_pic32mx.o
 .bss           0x00000000        0x0 build/milestone1/production/_ext/2019779704/sys_devcon_pic32mx.o
 .reginfo       0x00000000       0x18 build/milestone1/production/_ext/2019779704/sys_devcon_pic32mx.o
 .text          0x00000000        0x0 build/milestone1/production/_ext/1620769490/sys_int_pic32.o
 .data          0x00000000        0x0 build/milestone1/production/_ext/1620769490/sys_int_pic32.o
 .bss           0x00000000        0x0 build/milestone1/production/_ext/1620769490/sys_int_pic32.o
 .reginfo       0x00000000       0x18 build/milestone1/production/_ext/1620769490/sys_int_pic32.o
 .text.SYS_INT_StatusGetAndDisable
                0x00000000       0x1c build/milestone1/production/_ext/1620769490/sys_int_pic32.o
 .text.SYS_INT_StatusRestore
                0x00000000       0x1c build/milestone1/production/_ext/1620769490/sys_int_pic32.o
 .text.SYS_INT_Disable
                0x00000000       0x20 build/milestone1/production/_ext/1620769490/sys_int_pic32.o
 .text.SYS_INT_SourceDisable
                0x00000000       0x58 build/milestone1/production/_ext/1620769490/sys_int_pic32.o
 .text.SYS_INT_ExternalInterruptTriggerSet
                0x00000000       0x34 build/milestone1/production/_ext/1620769490/sys_int_pic32.o
 .text          0x00000000        0x0 build/milestone1/production/_ext/1366647692/heap_1.o
 .data          0x00000000        0x0 build/milestone1/production/_ext/1366647692/heap_1.o
 .reginfo       0x00000000       0x18 build/milestone1/production/_ext/1366647692/heap_1.o
 .text.vPortInitialiseBlocks
                0x00000000        0x8 build/milestone1/production/_ext/1366647692/heap_1.o
 .text.xPortGetFreeHeapSize
                0x00000000       0x14 build/milestone1/production/_ext/1366647692/heap_1.o
 .text          0x00000000        0x0 build/milestone1/production/_ext/1475386849/port.o
 .data          0x00000000        0x0 build/milestone1/production/_ext/1475386849/port.o
 .reginfo       0x00000000       0x18 build/milestone1/production/_ext/1475386849/port.o
 .text.vPortEndScheduler
                0x00000000        0x8 build/milestone1/production/_ext/1475386849/port.o
 .data          0x00000000        0x0 build/milestone1/production/_ext/1475386849/port_asm.o
 .bss           0x00000000        0x0 build/milestone1/production/_ext/1475386849/port_asm.o
 .reginfo       0x00000000       0x18 build/milestone1/production/_ext/1475386849/port_asm.o
 .text          0x00000000        0x0 build/milestone1/production/_ext/1241959881/croutine.o
 .data          0x00000000        0x0 build/milestone1/production/_ext/1241959881/croutine.o
 .bss           0x00000000        0x0 build/milestone1/production/_ext/1241959881/croutine.o
 .reginfo       0x00000000       0x18 build/milestone1/production/_ext/1241959881/croutine.o
 .text          0x00000000        0x0 build/milestone1/production/_ext/1241959881/list.o
 .data          0x00000000        0x0 build/milestone1/production/_ext/1241959881/list.o
 .bss           0x00000000        0x0 build/milestone1/production/_ext/1241959881/list.o
 .reginfo       0x00000000       0x18 build/milestone1/production/_ext/1241959881/list.o
 .text          0x00000000        0x0 build/milestone1/production/_ext/1241959881/queue.o
 .data          0x00000000        0x0 build/milestone1/production/_ext/1241959881/queue.o
 .bss           0x00000000        0x0 build/milestone1/production/_ext/1241959881/queue.o
 .reginfo       0x00000000       0x18 build/milestone1/production/_ext/1241959881/queue.o
 .text.xQueueCreateCountingSemaphore
                0x00000000       0x34 build/milestone1/production/_ext/1241959881/queue.o
 .text.xQueueGiveFromISR
                0x00000000       0xc0 build/milestone1/production/_ext/1241959881/queue.o
 .text.xQueuePeekFromISR
                0x00000000       0x74 build/milestone1/production/_ext/1241959881/queue.o
 .text.uxQueueMessagesWaiting
                0x00000000       0x34 build/milestone1/production/_ext/1241959881/queue.o
 .text.uxQueueSpacesAvailable
                0x00000000       0x38 build/milestone1/production/_ext/1241959881/queue.o
 .text.uxQueueMessagesWaitingFromISR
                0x00000000        0xc build/milestone1/production/_ext/1241959881/queue.o
 .text.vQueueDelete
                0x00000000       0x1c build/milestone1/production/_ext/1241959881/queue.o
 .text.xQueueIsQueueFullFromISR
                0x00000000       0x14 build/milestone1/production/_ext/1241959881/queue.o
 .text          0x00000000        0x0 build/milestone1/production/_ext/1241959881/tasks.o
 .data          0x00000000        0x0 build/milestone1/production/_ext/1241959881/tasks.o
 .reginfo       0x00000000       0x18 build/milestone1/production/_ext/1241959881/tasks.o
 .text.prvTaskIsTaskSuspended
                0x00000000       0x38 build/milestone1/production/_ext/1241959881/tasks.o
 .text.uxTaskPriorityGetFromISR
                0x00000000       0x3c build/milestone1/production/_ext/1241959881/tasks.o
 .text.xTaskResumeFromISR
                0x00000000       0xd8 build/milestone1/production/_ext/1241959881/tasks.o
 .text.vTaskEndScheduler
                0x00000000       0x3c build/milestone1/production/_ext/1241959881/tasks.o
 .text.xTaskGetTickCount
                0x00000000        0xc build/milestone1/production/_ext/1241959881/tasks.o
 .text.xTaskGetTickCountFromISR
                0x00000000        0xc build/milestone1/production/_ext/1241959881/tasks.o
 .text.uxTaskGetNumberOfTasks
                0x00000000        0xc build/milestone1/production/_ext/1241959881/tasks.o
 .text.pcTaskGetName
                0x00000000       0x10 build/milestone1/production/_ext/1241959881/tasks.o
 .text.vTaskPlaceOnUnorderedEventList
                0x00000000       0x48 build/milestone1/production/_ext/1241959881/tasks.o
 .text.xTaskRemoveFromUnorderedEventList
                0x00000000       0x9c build/milestone1/production/_ext/1241959881/tasks.o
 .text.xTaskGetCurrentTaskHandle
                0x00000000        0xc build/milestone1/production/_ext/1241959881/tasks.o
 .text.vTaskDelete
                0x00000000      0x128 build/milestone1/production/_ext/1241959881/tasks.o
 .text.uxTaskPriorityGet
                0x00000000       0x38 build/milestone1/production/_ext/1241959881/tasks.o
 .text.vTaskPrioritySet
                0x00000000      0x15c build/milestone1/production/_ext/1241959881/tasks.o
 .text.vTaskSuspend
                0x00000000      0x130 build/milestone1/production/_ext/1241959881/tasks.o
 .text.vTaskResume
                0x00000000       0xc0 build/milestone1/production/_ext/1241959881/tasks.o
 .text.vTaskDelayUntil
                0x00000000       0xa8 build/milestone1/production/_ext/1241959881/tasks.o
 .text.vTaskDelay
                0x00000000       0x58 build/milestone1/production/_ext/1241959881/tasks.o
 .text.uxTaskResetEventItemValue
                0x00000000       0x24 build/milestone1/production/_ext/1241959881/tasks.o
 .text.ulTaskNotifyTake
                0x00000000       0xc4 build/milestone1/production/_ext/1241959881/tasks.o
 .text.xTaskNotifyWait
                0x00000000      0x108 build/milestone1/production/_ext/1241959881/tasks.o
 .text.xTaskGenericNotify
                0x00000000      0x170 build/milestone1/production/_ext/1241959881/tasks.o
 .text.xTaskGenericNotifyFromISR
                0x00000000      0x1a8 build/milestone1/production/_ext/1241959881/tasks.o
 .text.vTaskNotifyGiveFromISR
                0x00000000      0x104 build/milestone1/production/_ext/1241959881/tasks.o
 .text.xTaskNotifyStateClear
                0x00000000       0x60 build/milestone1/production/_ext/1241959881/tasks.o
 .text          0x00000000        0x0 build/milestone1/production/_ext/1241959881/timers.o
 .data          0x00000000        0x0 build/milestone1/production/_ext/1241959881/timers.o
 .bss           0x00000000        0x0 build/milestone1/production/_ext/1241959881/timers.o
 .reginfo       0x00000000       0x18 build/milestone1/production/_ext/1241959881/timers.o
 .text          0x00000000        0x0 build/milestone1/production/_ext/1241959881/event_groups.o
 .data          0x00000000        0x0 build/milestone1/production/_ext/1241959881/event_groups.o
 .bss           0x00000000        0x0 build/milestone1/production/_ext/1241959881/event_groups.o
 .reginfo       0x00000000       0x18 build/milestone1/production/_ext/1241959881/event_groups.o
 .text.xEventGroupCreate
                0x00000000       0x3c build/milestone1/production/_ext/1241959881/event_groups.o
 .text.xEventGroupWaitBits
                0x00000000      0x148 build/milestone1/production/_ext/1241959881/event_groups.o
 .text.xEventGroupClearBits
                0x00000000       0x50 build/milestone1/production/_ext/1241959881/event_groups.o
 .text.xEventGroupGetBitsFromISR
                0x00000000       0x34 build/milestone1/production/_ext/1241959881/event_groups.o
 .text.xEventGroupSetBits
                0x00000000       0xfc build/milestone1/production/_ext/1241959881/event_groups.o
 .text.xEventGroupSync
                0x00000000      0x110 build/milestone1/production/_ext/1241959881/event_groups.o
 .text.vEventGroupDelete
                0x00000000       0x58 build/milestone1/production/_ext/1241959881/event_groups.o
 .text.vEventGroupSetBitsCallback
                0x00000000       0x1c build/milestone1/production/_ext/1241959881/event_groups.o
 .text.vEventGroupClearBitsCallback
                0x00000000       0x1c build/milestone1/production/_ext/1241959881/event_groups.o
 .text          0x00000000        0x0 build/milestone1/production/_ext/1360937237/debug.o
 .data          0x00000000        0x0 build/milestone1/production/_ext/1360937237/debug.o
 .bss           0x00000000        0x0 build/milestone1/production/_ext/1360937237/debug.o
 .reginfo       0x00000000       0x18 build/milestone1/production/_ext/1360937237/debug.o
 .text.dbgUARTVal
                0x00000000       0x1c build/milestone1/production/_ext/1360937237/debug.o
 .text.dbgUARTString
                0x00000000       0x60 build/milestone1/production/_ext/1360937237/debug.o
 .text.ExampleInterfaceFunction
                0x00000000        0x8 build/milestone1/production/_ext/1360937237/debug.o
 .text          0x00000000        0x0 build/milestone1/production/_ext/1360937237/motor.o
 .data          0x00000000        0x0 build/milestone1/production/_ext/1360937237/motor.o
 .bss           0x00000000        0x0 build/milestone1/production/_ext/1360937237/motor.o
 .reginfo       0x00000000       0x18 build/milestone1/production/_ext/1360937237/motor.o
 .text          0x00000000        0x0 build/milestone1/production/_ext/1360937237/myjson.o
 .data          0x00000000        0x0 build/milestone1/production/_ext/1360937237/myjson.o
 .bss           0x00000000        0x0 build/milestone1/production/_ext/1360937237/myjson.o
 .reginfo       0x00000000       0x18 build/milestone1/production/_ext/1360937237/myjson.o
 .text.parseString
                0x00000000       0x84 build/milestone1/production/_ext/1360937237/myjson.o
 .text.readNumInStringForm
                0x00000000       0x8c build/milestone1/production/_ext/1360937237/myjson.o
 .text.parseFieldItem
                0x00000000      0x16c build/milestone1/production/_ext/1360937237/myjson.o
 .text.jsonGetFieldItem
                0x00000000       0x58 build/milestone1/production/_ext/1360937237/myjson.o
 .text          0x00000000        0x0 c:/program files (x86)/microchip/xc32/v1.42/bin/bin/../../lib/gcc/pic32mx/4.8.3/../../../../pic32mx/lib/./proc/32MX795F512L\default_isr_vectors.o
 .data          0x00000000        0x0 c:/program files (x86)/microchip/xc32/v1.42/bin/bin/../../lib/gcc/pic32mx/4.8.3/../../../../pic32mx/lib/./proc/32MX795F512L\default_isr_vectors.o
 .bss           0x00000000        0x0 c:/program files (x86)/microchip/xc32/v1.42/bin/bin/../../lib/gcc/pic32mx/4.8.3/../../../../pic32mx/lib/./proc/32MX795F512L\default_isr_vectors.o
 .reginfo       0x00000000       0x18 c:/program files (x86)/microchip/xc32/v1.42/bin/bin/../../lib/gcc/pic32mx/4.8.3/../../../../pic32mx/lib/./proc/32MX795F512L\default_isr_vectors.o
 .discard       0x00000000       0xd0 c:/program files (x86)/microchip/xc32/v1.42/bin/bin/../../lib/gcc/pic32mx/4.8.3/../../../../pic32mx/lib/./proc/32MX795F512L\default_isr_vectors.o
 .data          0x00000000        0x0 c:/program files (x86)/microchip/xc32/v1.42/bin/bin/../../lib/gcc/pic32mx/4.8.3/../../../../pic32mx/lib\pic32_software_reset.o
 .bss           0x00000000        0x0 c:/program files (x86)/microchip/xc32/v1.42/bin/bin/../../lib/gcc/pic32mx/4.8.3/../../../../pic32mx/lib\pic32_software_reset.o
 .reginfo       0x00000000       0x18 c:/program files (x86)/microchip/xc32/v1.42/bin/bin/../../lib/gcc/pic32mx/4.8.3/../../../../pic32mx/lib\pic32_software_reset.o
 .text          0x00000000        0x0 c:/program files (x86)/microchip/xc32/v1.42/bin/bin/../../lib/gcc/pic32mx/4.8.3/../../../../pic32mx/lib/./proc/32MX795F512L\processor.o
 .data          0x00000000        0x0 c:/program files (x86)/microchip/xc32/v1.42/bin/bin/../../lib/gcc/pic32mx/4.8.3/../../../../pic32mx/lib/./proc/32MX795F512L\processor.o
 .bss           0x00000000        0x0 c:/program files (x86)/microchip/xc32/v1.42/bin/bin/../../lib/gcc/pic32mx/4.8.3/../../../../pic32mx/lib/./proc/32MX795F512L\processor.o
 .reginfo       0x00000000       0x18 c:/program files (x86)/microchip/xc32/v1.42/bin/bin/../../lib/gcc/pic32mx/4.8.3/../../../../pic32mx/lib/./proc/32MX795F512L\processor.o
 .data          0x00000000        0x0 c:/program files (x86)/microchip/xc32/v1.42/bin/bin/../../lib/gcc/pic32mx/4.8.3/../../../../pic32mx/lib\libpic32.a(memcpy.o)
 .bss           0x00000000        0x0 c:/program files (x86)/microchip/xc32/v1.42/bin/bin/../../lib/gcc/pic32mx/4.8.3/../../../../pic32mx/lib\libpic32.a(memcpy.o)
 .reginfo       0x00000000       0x18 c:/program files (x86)/microchip/xc32/v1.42/bin/bin/../../lib/gcc/pic32mx/4.8.3/../../../../pic32mx/lib\libpic32.a(memcpy.o)
 .data          0x00000000        0x0 c:/program files (x86)/microchip/xc32/v1.42/bin/bin/../../lib/gcc/pic32mx/4.8.3/../../../../pic32mx/lib\libpic32.a(memset.o)
 .bss           0x00000000        0x0 c:/program files (x86)/microchip/xc32/v1.42/bin/bin/../../lib/gcc/pic32mx/4.8.3/../../../../pic32mx/lib\libpic32.a(memset.o)
 .reginfo       0x00000000       0x18 c:/program files (x86)/microchip/xc32/v1.42/bin/bin/../../lib/gcc/pic32mx/4.8.3/../../../../pic32mx/lib\libpic32.a(memset.o)
 .text          0x00000000      0x1a0 c:/program files (x86)/microchip/xc32/v1.42/bin/bin/../../lib/gcc/pic32mx/4.8.3/../../../../pic32mx/lib\libpic32.a(strcpy.o)
 .data          0x00000000        0x0 c:/program files (x86)/microchip/xc32/v1.42/bin/bin/../../lib/gcc/pic32mx/4.8.3/../../../../pic32mx/lib\libpic32.a(strcpy.o)
 .bss           0x00000000        0x0 c:/program files (x86)/microchip/xc32/v1.42/bin/bin/../../lib/gcc/pic32mx/4.8.3/../../../../pic32mx/lib\libpic32.a(strcpy.o)
 .reginfo       0x00000000       0x18 c:/program files (x86)/microchip/xc32/v1.42/bin/bin/../../lib/gcc/pic32mx/4.8.3/../../../../pic32mx/lib\libpic32.a(strcpy.o)
 .comment       0x00000000       0x1a c:/program files (x86)/microchip/xc32/v1.42/bin/bin/../../lib/gcc/pic32mx/4.8.3/../../../../pic32mx/lib\libpic32.a(strcpy.o)
 .data          0x00000000        0x0 c:/program files (x86)/microchip/xc32/v1.42/bin/bin/../../lib/gcc/pic32mx/4.8.3/../../../../pic32mx/lib\libpic32.a(strlen.o)
 .bss           0x00000000        0x0 c:/program files (x86)/microchip/xc32/v1.42/bin/bin/../../lib/gcc/pic32mx/4.8.3/../../../../pic32mx/lib\libpic32.a(strlen.o)
 .reginfo       0x00000000       0x18 c:/program files (x86)/microchip/xc32/v1.42/bin/bin/../../lib/gcc/pic32mx/4.8.3/../../../../pic32mx/lib\libpic32.a(strlen.o)
 .text          0x00000000        0x0 c:/program files (x86)/microchip/xc32/v1.42/bin/bin/../../lib/gcc/pic32mx/4.8.3/../../../../pic32mx/lib\libpic32.a(default-bootstrap-exception-handler.o)
 .data          0x00000000        0x0 c:/program files (x86)/microchip/xc32/v1.42/bin/bin/../../lib/gcc/pic32mx/4.8.3/../../../../pic32mx/lib\libpic32.a(default-bootstrap-exception-handler.o)
 .bss           0x00000000        0x0 c:/program files (x86)/microchip/xc32/v1.42/bin/bin/../../lib/gcc/pic32mx/4.8.3/../../../../pic32mx/lib\libpic32.a(default-bootstrap-exception-handler.o)
 .reginfo       0x00000000       0x18 c:/program files (x86)/microchip/xc32/v1.42/bin/bin/../../lib/gcc/pic32mx/4.8.3/../../../../pic32mx/lib\libpic32.a(default-bootstrap-exception-handler.o)
 .text          0x00000000        0x0 c:/program files (x86)/microchip/xc32/v1.42/bin/bin/../../lib/gcc/pic32mx/4.8.3/../../../../pic32mx/lib\libpic32.a(default-on-reset.o)
 .data          0x00000000        0x0 c:/program files (x86)/microchip/xc32/v1.42/bin/bin/../../lib/gcc/pic32mx/4.8.3/../../../../pic32mx/lib\libpic32.a(default-on-reset.o)
 .bss           0x00000000        0x0 c:/program files (x86)/microchip/xc32/v1.42/bin/bin/../../lib/gcc/pic32mx/4.8.3/../../../../pic32mx/lib\libpic32.a(default-on-reset.o)
 .reginfo       0x00000000       0x18 c:/program files (x86)/microchip/xc32/v1.42/bin/bin/../../lib/gcc/pic32mx/4.8.3/../../../../pic32mx/lib\libpic32.a(default-on-reset.o)
 .text          0x00000000        0x0 c:/program files (x86)/microchip/xc32/v1.42/bin/bin/../../lib/gcc/pic32mx/4.8.3/../../../../pic32mx/lib\libpic32.a(default-on-bootstrap.o)
 .data          0x00000000        0x0 c:/program files (x86)/microchip/xc32/v1.42/bin/bin/../../lib/gcc/pic32mx/4.8.3/../../../../pic32mx/lib\libpic32.a(default-on-bootstrap.o)
 .bss           0x00000000        0x0 c:/program files (x86)/microchip/xc32/v1.42/bin/bin/../../lib/gcc/pic32mx/4.8.3/../../../../pic32mx/lib\libpic32.a(default-on-bootstrap.o)
 .reginfo       0x00000000       0x18 c:/program files (x86)/microchip/xc32/v1.42/bin/bin/../../lib/gcc/pic32mx/4.8.3/../../../../pic32mx/lib\libpic32.a(default-on-bootstrap.o)
 .data          0x00000000        0x0 c:/program files (x86)/microchip/xc32/v1.42/bin/bin/../../lib/gcc/pic32mx/4.8.3/../../../../pic32mx/lib\libpic32.a(default-nmi-handler.o)
 .bss           0x00000000        0x0 c:/program files (x86)/microchip/xc32/v1.42/bin/bin/../../lib/gcc/pic32mx/4.8.3/../../../../pic32mx/lib\libpic32.a(default-nmi-handler.o)
 .reginfo       0x00000000       0x18 c:/program files (x86)/microchip/xc32/v1.42/bin/bin/../../lib/gcc/pic32mx/4.8.3/../../../../pic32mx/lib\libpic32.a(default-nmi-handler.o)
 .text          0x00000000        0x0 c:/program files (x86)/microchip/xc32/v1.42/bin/bin/../../lib/gcc/pic32mx/4.8.3/../../../../pic32mx/lib\libpic32.a(general-exception.o)
 .data          0x00000000        0x0 c:/program files (x86)/microchip/xc32/v1.42/bin/bin/../../lib/gcc/pic32mx/4.8.3/../../../../pic32mx/lib\libpic32.a(general-exception.o)
 .bss           0x00000000        0x0 c:/program files (x86)/microchip/xc32/v1.42/bin/bin/../../lib/gcc/pic32mx/4.8.3/../../../../pic32mx/lib\libpic32.a(general-exception.o)
 .reginfo       0x00000000       0x18 c:/program files (x86)/microchip/xc32/v1.42/bin/bin/../../lib/gcc/pic32mx/4.8.3/../../../../pic32mx/lib\libpic32.a(general-exception.o)
 .text          0x00000000        0x0 c:/program files (x86)/microchip/xc32/v1.42/bin/bin/../../lib/gcc/pic32mx/4.8.3/../../../../pic32mx/lib\libpic32.a(vector0.o)
 .data          0x00000000        0x0 c:/program files (x86)/microchip/xc32/v1.42/bin/bin/../../lib/gcc/pic32mx/4.8.3/../../../../pic32mx/lib\libpic32.a(vector0.o)
 .bss           0x00000000        0x0 c:/program files (x86)/microchip/xc32/v1.42/bin/bin/../../lib/gcc/pic32mx/4.8.3/../../../../pic32mx/lib\libpic32.a(vector0.o)
 .reginfo       0x00000000       0x18 c:/program files (x86)/microchip/xc32/v1.42/bin/bin/../../lib/gcc/pic32mx/4.8.3/../../../../pic32mx/lib\libpic32.a(vector0.o)
 .text          0x00000000        0x0 c:/program files (x86)/microchip/xc32/v1.42/bin/bin/../../lib/gcc/pic32mx/4.8.3/../../../../pic32mx/lib\libpic32.a(vector2.o)
 .data          0x00000000        0x0 c:/program files (x86)/microchip/xc32/v1.42/bin/bin/../../lib/gcc/pic32mx/4.8.3/../../../../pic32mx/lib\libpic32.a(vector2.o)
 .bss           0x00000000        0x0 c:/program files (x86)/microchip/xc32/v1.42/bin/bin/../../lib/gcc/pic32mx/4.8.3/../../../../pic32mx/lib\libpic32.a(vector2.o)
 .reginfo       0x00000000       0x18 c:/program files (x86)/microchip/xc32/v1.42/bin/bin/../../lib/gcc/pic32mx/4.8.3/../../../../pic32mx/lib\libpic32.a(vector2.o)
 .text          0x00000000        0x0 c:/program files (x86)/microchip/xc32/v1.42/bin/bin/../../lib/gcc/pic32mx/4.8.3/../../../../pic32mx/lib\libpic32.a(vector3.o)
 .data          0x00000000        0x0 c:/program files (x86)/microchip/xc32/v1.42/bin/bin/../../lib/gcc/pic32mx/4.8.3/../../../../pic32mx/lib\libpic32.a(vector3.o)
 .bss           0x00000000        0x0 c:/program files (x86)/microchip/xc32/v1.42/bin/bin/../../lib/gcc/pic32mx/4.8.3/../../../../pic32mx/lib\libpic32.a(vector3.o)
 .reginfo       0x00000000       0x18 c:/program files (x86)/microchip/xc32/v1.42/bin/bin/../../lib/gcc/pic32mx/4.8.3/../../../../pic32mx/lib\libpic32.a(vector3.o)
 .text          0x00000000        0x0 c:/program files (x86)/microchip/xc32/v1.42/bin/bin/../../lib/gcc/pic32mx/4.8.3/../../../../pic32mx/lib\libpic32.a(vector5.o)
 .data          0x00000000        0x0 c:/program files (x86)/microchip/xc32/v1.42/bin/bin/../../lib/gcc/pic32mx/4.8.3/../../../../pic32mx/lib\libpic32.a(vector5.o)
 .bss           0x00000000        0x0 c:/program files (x86)/microchip/xc32/v1.42/bin/bin/../../lib/gcc/pic32mx/4.8.3/../../../../pic32mx/lib\libpic32.a(vector5.o)
 .reginfo       0x00000000       0x18 c:/program files (x86)/microchip/xc32/v1.42/bin/bin/../../lib/gcc/pic32mx/4.8.3/../../../../pic32mx/lib\libpic32.a(vector5.o)
 .text          0x00000000        0x0 c:/program files (x86)/microchip/xc32/v1.42/bin/bin/../../lib/gcc/pic32mx/4.8.3/../../../../pic32mx/lib\libpic32.a(vector6.o)
 .data          0x00000000        0x0 c:/program files (x86)/microchip/xc32/v1.42/bin/bin/../../lib/gcc/pic32mx/4.8.3/../../../../pic32mx/lib\libpic32.a(vector6.o)
 .bss           0x00000000        0x0 c:/program files (x86)/microchip/xc32/v1.42/bin/bin/../../lib/gcc/pic32mx/4.8.3/../../../../pic32mx/lib\libpic32.a(vector6.o)
 .reginfo       0x00000000       0x18 c:/program files (x86)/microchip/xc32/v1.42/bin/bin/../../lib/gcc/pic32mx/4.8.3/../../../../pic32mx/lib\libpic32.a(vector6.o)
 .text          0x00000000        0x0 c:/program files (x86)/microchip/xc32/v1.42/bin/bin/../../lib/gcc/pic32mx/4.8.3/../../../../pic32mx/lib\libpic32.a(vector7.o)
 .data          0x00000000        0x0 c:/program files (x86)/microchip/xc32/v1.42/bin/bin/../../lib/gcc/pic32mx/4.8.3/../../../../pic32mx/lib\libpic32.a(vector7.o)
 .bss           0x00000000        0x0 c:/program files (x86)/microchip/xc32/v1.42/bin/bin/../../lib/gcc/pic32mx/4.8.3/../../../../pic32mx/lib\libpic32.a(vector7.o)
 .reginfo       0x00000000       0x18 c:/program files (x86)/microchip/xc32/v1.42/bin/bin/../../lib/gcc/pic32mx/4.8.3/../../../../pic32mx/lib\libpic32.a(vector7.o)
 .text          0x00000000        0x0 c:/program files (x86)/microchip/xc32/v1.42/bin/bin/../../lib/gcc/pic32mx/4.8.3/../../../../pic32mx/lib\libpic32.a(vector9.o)
 .data          0x00000000        0x0 c:/program files (x86)/microchip/xc32/v1.42/bin/bin/../../lib/gcc/pic32mx/4.8.3/../../../../pic32mx/lib\libpic32.a(vector9.o)
 .bss           0x00000000        0x0 c:/program files (x86)/microchip/xc32/v1.42/bin/bin/../../lib/gcc/pic32mx/4.8.3/../../../../pic32mx/lib\libpic32.a(vector9.o)
 .reginfo       0x00000000       0x18 c:/program files (x86)/microchip/xc32/v1.42/bin/bin/../../lib/gcc/pic32mx/4.8.3/../../../../pic32mx/lib\libpic32.a(vector9.o)
 .text          0x00000000        0x0 c:/program files (x86)/microchip/xc32/v1.42/bin/bin/../../lib/gcc/pic32mx/4.8.3/../../../../pic32mx/lib\libpic32.a(vector10.o)
 .data          0x00000000        0x0 c:/program files (x86)/microchip/xc32/v1.42/bin/bin/../../lib/gcc/pic32mx/4.8.3/../../../../pic32mx/lib\libpic32.a(vector10.o)
 .bss           0x00000000        0x0 c:/program files (x86)/microchip/xc32/v1.42/bin/bin/../../lib/gcc/pic32mx/4.8.3/../../../../pic32mx/lib\libpic32.a(vector10.o)
 .reginfo       0x00000000       0x18 c:/program files (x86)/microchip/xc32/v1.42/bin/bin/../../lib/gcc/pic32mx/4.8.3/../../../../pic32mx/lib\libpic32.a(vector10.o)
 .text          0x00000000        0x0 c:/program files (x86)/microchip/xc32/v1.42/bin/bin/../../lib/gcc/pic32mx/4.8.3/../../../../pic32mx/lib\libpic32.a(vector11.o)
 .data          0x00000000        0x0 c:/program files (x86)/microchip/xc32/v1.42/bin/bin/../../lib/gcc/pic32mx/4.8.3/../../../../pic32mx/lib\libpic32.a(vector11.o)
 .bss           0x00000000        0x0 c:/program files (x86)/microchip/xc32/v1.42/bin/bin/../../lib/gcc/pic32mx/4.8.3/../../../../pic32mx/lib\libpic32.a(vector11.o)
 .reginfo       0x00000000       0x18 c:/program files (x86)/microchip/xc32/v1.42/bin/bin/../../lib/gcc/pic32mx/4.8.3/../../../../pic32mx/lib\libpic32.a(vector11.o)
 .text          0x00000000        0x0 c:/program files (x86)/microchip/xc32/v1.42/bin/bin/../../lib/gcc/pic32mx/4.8.3/../../../../pic32mx/lib\libpic32.a(vector13.o)
 .data          0x00000000        0x0 c:/program files (x86)/microchip/xc32/v1.42/bin/bin/../../lib/gcc/pic32mx/4.8.3/../../../../pic32mx/lib\libpic32.a(vector13.o)
 .bss           0x00000000        0x0 c:/program files (x86)/microchip/xc32/v1.42/bin/bin/../../lib/gcc/pic32mx/4.8.3/../../../../pic32mx/lib\libpic32.a(vector13.o)
 .reginfo       0x00000000       0x18 c:/program files (x86)/microchip/xc32/v1.42/bin/bin/../../lib/gcc/pic32mx/4.8.3/../../../../pic32mx/lib\libpic32.a(vector13.o)
 .text          0x00000000        0x0 c:/program files (x86)/microchip/xc32/v1.42/bin/bin/../../lib/gcc/pic32mx/4.8.3/../../../../pic32mx/lib\libpic32.a(vector14.o)
 .data          0x00000000        0x0 c:/program files (x86)/microchip/xc32/v1.42/bin/bin/../../lib/gcc/pic32mx/4.8.3/../../../../pic32mx/lib\libpic32.a(vector14.o)
 .bss           0x00000000        0x0 c:/program files (x86)/microchip/xc32/v1.42/bin/bin/../../lib/gcc/pic32mx/4.8.3/../../../../pic32mx/lib\libpic32.a(vector14.o)
 .reginfo       0x00000000       0x18 c:/program files (x86)/microchip/xc32/v1.42/bin/bin/../../lib/gcc/pic32mx/4.8.3/../../../../pic32mx/lib\libpic32.a(vector14.o)
 .text          0x00000000        0x0 c:/program files (x86)/microchip/xc32/v1.42/bin/bin/../../lib/gcc/pic32mx/4.8.3/../../../../pic32mx/lib\libpic32.a(vector15.o)
 .data          0x00000000        0x0 c:/program files (x86)/microchip/xc32/v1.42/bin/bin/../../lib/gcc/pic32mx/4.8.3/../../../../pic32mx/lib\libpic32.a(vector15.o)
 .bss           0x00000000        0x0 c:/program files (x86)/microchip/xc32/v1.42/bin/bin/../../lib/gcc/pic32mx/4.8.3/../../../../pic32mx/lib\libpic32.a(vector15.o)
 .reginfo       0x00000000       0x18 c:/program files (x86)/microchip/xc32/v1.42/bin/bin/../../lib/gcc/pic32mx/4.8.3/../../../../pic32mx/lib\libpic32.a(vector15.o)
 .text          0x00000000        0x0 c:/program files (x86)/microchip/xc32/v1.42/bin/bin/../../lib/gcc/pic32mx/4.8.3/../../../../pic32mx/lib\libpic32.a(vector17.o)
 .data          0x00000000        0x0 c:/program files (x86)/microchip/xc32/v1.42/bin/bin/../../lib/gcc/pic32mx/4.8.3/../../../../pic32mx/lib\libpic32.a(vector17.o)
 .bss           0x00000000        0x0 c:/program files (x86)/microchip/xc32/v1.42/bin/bin/../../lib/gcc/pic32mx/4.8.3/../../../../pic32mx/lib\libpic32.a(vector17.o)
 .reginfo       0x00000000       0x18 c:/program files (x86)/microchip/xc32/v1.42/bin/bin/../../lib/gcc/pic32mx/4.8.3/../../../../pic32mx/lib\libpic32.a(vector17.o)
 .text          0x00000000        0x0 c:/program files (x86)/microchip/xc32/v1.42/bin/bin/../../lib/gcc/pic32mx/4.8.3/../../../../pic32mx/lib\libpic32.a(vector18.o)
 .data          0x00000000        0x0 c:/program files (x86)/microchip/xc32/v1.42/bin/bin/../../lib/gcc/pic32mx/4.8.3/../../../../pic32mx/lib\libpic32.a(vector18.o)
 .bss           0x00000000        0x0 c:/program files (x86)/microchip/xc32/v1.42/bin/bin/../../lib/gcc/pic32mx/4.8.3/../../../../pic32mx/lib\libpic32.a(vector18.o)
 .reginfo       0x00000000       0x18 c:/program files (x86)/microchip/xc32/v1.42/bin/bin/../../lib/gcc/pic32mx/4.8.3/../../../../pic32mx/lib\libpic32.a(vector18.o)
 .text          0x00000000        0x0 c:/program files (x86)/microchip/xc32/v1.42/bin/bin/../../lib/gcc/pic32mx/4.8.3/../../../../pic32mx/lib\libpic32.a(vector19.o)
 .data          0x00000000        0x0 c:/program files (x86)/microchip/xc32/v1.42/bin/bin/../../lib/gcc/pic32mx/4.8.3/../../../../pic32mx/lib\libpic32.a(vector19.o)
 .bss           0x00000000        0x0 c:/program files (x86)/microchip/xc32/v1.42/bin/bin/../../lib/gcc/pic32mx/4.8.3/../../../../pic32mx/lib\libpic32.a(vector19.o)
 .reginfo       0x00000000       0x18 c:/program files (x86)/microchip/xc32/v1.42/bin/bin/../../lib/gcc/pic32mx/4.8.3/../../../../pic32mx/lib\libpic32.a(vector19.o)
 .text          0x00000000        0x0 c:/program files (x86)/microchip/xc32/v1.42/bin/bin/../../lib/gcc/pic32mx/4.8.3/../../../../pic32mx/lib\libpic32.a(vector21.o)
 .data          0x00000000        0x0 c:/program files (x86)/microchip/xc32/v1.42/bin/bin/../../lib/gcc/pic32mx/4.8.3/../../../../pic32mx/lib\libpic32.a(vector21.o)
 .bss           0x00000000        0x0 c:/program files (x86)/microchip/xc32/v1.42/bin/bin/../../lib/gcc/pic32mx/4.8.3/../../../../pic32mx/lib\libpic32.a(vector21.o)
 .reginfo       0x00000000       0x18 c:/program files (x86)/microchip/xc32/v1.42/bin/bin/../../lib/gcc/pic32mx/4.8.3/../../../../pic32mx/lib\libpic32.a(vector21.o)
 .text          0x00000000        0x0 c:/program files (x86)/microchip/xc32/v1.42/bin/bin/../../lib/gcc/pic32mx/4.8.3/../../../../pic32mx/lib\libpic32.a(vector22.o)
 .data          0x00000000        0x0 c:/program files (x86)/microchip/xc32/v1.42/bin/bin/../../lib/gcc/pic32mx/4.8.3/../../../../pic32mx/lib\libpic32.a(vector22.o)
 .bss           0x00000000        0x0 c:/program files (x86)/microchip/xc32/v1.42/bin/bin/../../lib/gcc/pic32mx/4.8.3/../../../../pic32mx/lib\libpic32.a(vector22.o)
 .reginfo       0x00000000       0x18 c:/program files (x86)/microchip/xc32/v1.42/bin/bin/../../lib/gcc/pic32mx/4.8.3/../../../../pic32mx/lib\libpic32.a(vector22.o)
 .text          0x00000000        0x0 c:/program files (x86)/microchip/xc32/v1.42/bin/bin/../../lib/gcc/pic32mx/4.8.3/../../../../pic32mx/lib\libpic32.a(vector23.o)
 .data          0x00000000        0x0 c:/program files (x86)/microchip/xc32/v1.42/bin/bin/../../lib/gcc/pic32mx/4.8.3/../../../../pic32mx/lib\libpic32.a(vector23.o)
 .bss           0x00000000        0x0 c:/program files (x86)/microchip/xc32/v1.42/bin/bin/../../lib/gcc/pic32mx/4.8.3/../../../../pic32mx/lib\libpic32.a(vector23.o)
 .reginfo       0x00000000       0x18 c:/program files (x86)/microchip/xc32/v1.42/bin/bin/../../lib/gcc/pic32mx/4.8.3/../../../../pic32mx/lib\libpic32.a(vector23.o)
 .text          0x00000000        0x0 c:/program files (x86)/microchip/xc32/v1.42/bin/bin/../../lib/gcc/pic32mx/4.8.3/../../../../pic32mx/lib\libpic32.a(vector25.o)
 .data          0x00000000        0x0 c:/program files (x86)/microchip/xc32/v1.42/bin/bin/../../lib/gcc/pic32mx/4.8.3/../../../../pic32mx/lib\libpic32.a(vector25.o)
 .bss           0x00000000        0x0 c:/program files (x86)/microchip/xc32/v1.42/bin/bin/../../lib/gcc/pic32mx/4.8.3/../../../../pic32mx/lib\libpic32.a(vector25.o)
 .reginfo       0x00000000       0x18 c:/program files (x86)/microchip/xc32/v1.42/bin/bin/../../lib/gcc/pic32mx/4.8.3/../../../../pic32mx/lib\libpic32.a(vector25.o)
 .text          0x00000000        0x0 c:/program files (x86)/microchip/xc32/v1.42/bin/bin/../../lib/gcc/pic32mx/4.8.3/../../../../pic32mx/lib\libpic32.a(vector26.o)
 .data          0x00000000        0x0 c:/program files (x86)/microchip/xc32/v1.42/bin/bin/../../lib/gcc/pic32mx/4.8.3/../../../../pic32mx/lib\libpic32.a(vector26.o)
 .bss           0x00000000        0x0 c:/program files (x86)/microchip/xc32/v1.42/bin/bin/../../lib/gcc/pic32mx/4.8.3/../../../../pic32mx/lib\libpic32.a(vector26.o)
 .reginfo       0x00000000       0x18 c:/program files (x86)/microchip/xc32/v1.42/bin/bin/../../lib/gcc/pic32mx/4.8.3/../../../../pic32mx/lib\libpic32.a(vector26.o)
 .text          0x00000000        0x0 c:/program files (x86)/microchip/xc32/v1.42/bin/bin/../../lib/gcc/pic32mx/4.8.3/../../../../pic32mx/lib\libpic32.a(vector27.o)
 .data          0x00000000        0x0 c:/program files (x86)/microchip/xc32/v1.42/bin/bin/../../lib/gcc/pic32mx/4.8.3/../../../../pic32mx/lib\libpic32.a(vector27.o)
 .bss           0x00000000        0x0 c:/program files (x86)/microchip/xc32/v1.42/bin/bin/../../lib/gcc/pic32mx/4.8.3/../../../../pic32mx/lib\libpic32.a(vector27.o)
 .reginfo       0x00000000       0x18 c:/program files (x86)/microchip/xc32/v1.42/bin/bin/../../lib/gcc/pic32mx/4.8.3/../../../../pic32mx/lib\libpic32.a(vector27.o)
 .text          0x00000000        0x0 c:/program files (x86)/microchip/xc32/v1.42/bin/bin/../../lib/gcc/pic32mx/4.8.3/../../../../pic32mx/lib\libpic32.a(vector28.o)
 .data          0x00000000        0x0 c:/program files (x86)/microchip/xc32/v1.42/bin/bin/../../lib/gcc/pic32mx/4.8.3/../../../../pic32mx/lib\libpic32.a(vector28.o)
 .bss           0x00000000        0x0 c:/program files (x86)/microchip/xc32/v1.42/bin/bin/../../lib/gcc/pic32mx/4.8.3/../../../../pic32mx/lib\libpic32.a(vector28.o)
 .reginfo       0x00000000       0x18 c:/program files (x86)/microchip/xc32/v1.42/bin/bin/../../lib/gcc/pic32mx/4.8.3/../../../../pic32mx/lib\libpic32.a(vector28.o)
 .text          0x00000000        0x0 c:/program files (x86)/microchip/xc32/v1.42/bin/bin/../../lib/gcc/pic32mx/4.8.3/../../../../pic32mx/lib\libpic32.a(vector29.o)
 .data          0x00000000        0x0 c:/program files (x86)/microchip/xc32/v1.42/bin/bin/../../lib/gcc/pic32mx/4.8.3/../../../../pic32mx/lib\libpic32.a(vector29.o)
 .bss           0x00000000        0x0 c:/program files (x86)/microchip/xc32/v1.42/bin/bin/../../lib/gcc/pic32mx/4.8.3/../../../../pic32mx/lib\libpic32.a(vector29.o)
 .reginfo       0x00000000       0x18 c:/program files (x86)/microchip/xc32/v1.42/bin/bin/../../lib/gcc/pic32mx/4.8.3/../../../../pic32mx/lib\libpic32.a(vector29.o)
 .text          0x00000000        0x0 c:/program files (x86)/microchip/xc32/v1.42/bin/bin/../../lib/gcc/pic32mx/4.8.3/../../../../pic32mx/lib\libpic32.a(vector30.o)
 .data          0x00000000        0x0 c:/program files (x86)/microchip/xc32/v1.42/bin/bin/../../lib/gcc/pic32mx/4.8.3/../../../../pic32mx/lib\libpic32.a(vector30.o)
 .bss           0x00000000        0x0 c:/program files (x86)/microchip/xc32/v1.42/bin/bin/../../lib/gcc/pic32mx/4.8.3/../../../../pic32mx/lib\libpic32.a(vector30.o)
 .reginfo       0x00000000       0x18 c:/program files (x86)/microchip/xc32/v1.42/bin/bin/../../lib/gcc/pic32mx/4.8.3/../../../../pic32mx/lib\libpic32.a(vector30.o)
 .text          0x00000000        0x0 c:/program files (x86)/microchip/xc32/v1.42/bin/bin/../../lib/gcc/pic32mx/4.8.3/../../../../pic32mx/lib\libpic32.a(vector31.o)
 .data          0x00000000        0x0 c:/program files (x86)/microchip/xc32/v1.42/bin/bin/../../lib/gcc/pic32mx/4.8.3/../../../../pic32mx/lib\libpic32.a(vector31.o)
 .bss           0x00000000        0x0 c:/program files (x86)/microchip/xc32/v1.42/bin/bin/../../lib/gcc/pic32mx/4.8.3/../../../../pic32mx/lib\libpic32.a(vector31.o)
 .reginfo       0x00000000       0x18 c:/program files (x86)/microchip/xc32/v1.42/bin/bin/../../lib/gcc/pic32mx/4.8.3/../../../../pic32mx/lib\libpic32.a(vector31.o)
 .text          0x00000000        0x0 c:/program files (x86)/microchip/xc32/v1.42/bin/bin/../../lib/gcc/pic32mx/4.8.3/../../../../pic32mx/lib\libpic32.a(vector32.o)
 .data          0x00000000        0x0 c:/program files (x86)/microchip/xc32/v1.42/bin/bin/../../lib/gcc/pic32mx/4.8.3/../../../../pic32mx/lib\libpic32.a(vector32.o)
 .bss           0x00000000        0x0 c:/program files (x86)/microchip/xc32/v1.42/bin/bin/../../lib/gcc/pic32mx/4.8.3/../../../../pic32mx/lib\libpic32.a(vector32.o)
 .reginfo       0x00000000       0x18 c:/program files (x86)/microchip/xc32/v1.42/bin/bin/../../lib/gcc/pic32mx/4.8.3/../../../../pic32mx/lib\libpic32.a(vector32.o)
 .text          0x00000000        0x0 c:/program files (x86)/microchip/xc32/v1.42/bin/bin/../../lib/gcc/pic32mx/4.8.3/../../../../pic32mx/lib\libpic32.a(vector33.o)
 .data          0x00000000        0x0 c:/program files (x86)/microchip/xc32/v1.42/bin/bin/../../lib/gcc/pic32mx/4.8.3/../../../../pic32mx/lib\libpic32.a(vector33.o)
 .bss           0x00000000        0x0 c:/program files (x86)/microchip/xc32/v1.42/bin/bin/../../lib/gcc/pic32mx/4.8.3/../../../../pic32mx/lib\libpic32.a(vector33.o)
 .reginfo       0x00000000       0x18 c:/program files (x86)/microchip/xc32/v1.42/bin/bin/../../lib/gcc/pic32mx/4.8.3/../../../../pic32mx/lib\libpic32.a(vector33.o)
 .text          0x00000000        0x0 c:/program files (x86)/microchip/xc32/v1.42/bin/bin/../../lib/gcc/pic32mx/4.8.3/../../../../pic32mx/lib\libpic32.a(vector34.o)
 .data          0x00000000        0x0 c:/program files (x86)/microchip/xc32/v1.42/bin/bin/../../lib/gcc/pic32mx/4.8.3/../../../../pic32mx/lib\libpic32.a(vector34.o)
 .bss           0x00000000        0x0 c:/program files (x86)/microchip/xc32/v1.42/bin/bin/../../lib/gcc/pic32mx/4.8.3/../../../../pic32mx/lib\libpic32.a(vector34.o)
 .reginfo       0x00000000       0x18 c:/program files (x86)/microchip/xc32/v1.42/bin/bin/../../lib/gcc/pic32mx/4.8.3/../../../../pic32mx/lib\libpic32.a(vector34.o)
 .text          0x00000000        0x0 c:/program files (x86)/microchip/xc32/v1.42/bin/bin/../../lib/gcc/pic32mx/4.8.3/../../../../pic32mx/lib\libpic32.a(vector35.o)
 .data          0x00000000        0x0 c:/program files (x86)/microchip/xc32/v1.42/bin/bin/../../lib/gcc/pic32mx/4.8.3/../../../../pic32mx/lib\libpic32.a(vector35.o)
 .bss           0x00000000        0x0 c:/program files (x86)/microchip/xc32/v1.42/bin/bin/../../lib/gcc/pic32mx/4.8.3/../../../../pic32mx/lib\libpic32.a(vector35.o)
 .reginfo       0x00000000       0x18 c:/program files (x86)/microchip/xc32/v1.42/bin/bin/../../lib/gcc/pic32mx/4.8.3/../../../../pic32mx/lib\libpic32.a(vector35.o)
 .text          0x00000000        0x0 c:/program files (x86)/microchip/xc32/v1.42/bin/bin/../../lib/gcc/pic32mx/4.8.3/../../../../pic32mx/lib\libpic32.a(vector36.o)
 .data          0x00000000        0x0 c:/program files (x86)/microchip/xc32/v1.42/bin/bin/../../lib/gcc/pic32mx/4.8.3/../../../../pic32mx/lib\libpic32.a(vector36.o)
 .bss           0x00000000        0x0 c:/program files (x86)/microchip/xc32/v1.42/bin/bin/../../lib/gcc/pic32mx/4.8.3/../../../../pic32mx/lib\libpic32.a(vector36.o)
 .reginfo       0x00000000       0x18 c:/program files (x86)/microchip/xc32/v1.42/bin/bin/../../lib/gcc/pic32mx/4.8.3/../../../../pic32mx/lib\libpic32.a(vector36.o)
 .text          0x00000000        0x0 c:/program files (x86)/microchip/xc32/v1.42/bin/bin/../../lib/gcc/pic32mx/4.8.3/../../../../pic32mx/lib\libpic32.a(vector37.o)
 .data          0x00000000        0x0 c:/program files (x86)/microchip/xc32/v1.42/bin/bin/../../lib/gcc/pic32mx/4.8.3/../../../../pic32mx/lib\libpic32.a(vector37.o)
 .bss           0x00000000        0x0 c:/program files (x86)/microchip/xc32/v1.42/bin/bin/../../lib/gcc/pic32mx/4.8.3/../../../../pic32mx/lib\libpic32.a(vector37.o)
 .reginfo       0x00000000       0x18 c:/program files (x86)/microchip/xc32/v1.42/bin/bin/../../lib/gcc/pic32mx/4.8.3/../../../../pic32mx/lib\libpic32.a(vector37.o)
 .text          0x00000000        0x0 c:/program files (x86)/microchip/xc32/v1.42/bin/bin/../../lib/gcc/pic32mx/4.8.3/../../../../pic32mx/lib\libpic32.a(vector38.o)
 .data          0x00000000        0x0 c:/program files (x86)/microchip/xc32/v1.42/bin/bin/../../lib/gcc/pic32mx/4.8.3/../../../../pic32mx/lib\libpic32.a(vector38.o)
 .bss           0x00000000        0x0 c:/program files (x86)/microchip/xc32/v1.42/bin/bin/../../lib/gcc/pic32mx/4.8.3/../../../../pic32mx/lib\libpic32.a(vector38.o)
 .reginfo       0x00000000       0x18 c:/program files (x86)/microchip/xc32/v1.42/bin/bin/../../lib/gcc/pic32mx/4.8.3/../../../../pic32mx/lib\libpic32.a(vector38.o)
 .text          0x00000000        0x0 c:/program files (x86)/microchip/xc32/v1.42/bin/bin/../../lib/gcc/pic32mx/4.8.3/../../../../pic32mx/lib\libpic32.a(vector39.o)
 .data          0x00000000        0x0 c:/program files (x86)/microchip/xc32/v1.42/bin/bin/../../lib/gcc/pic32mx/4.8.3/../../../../pic32mx/lib\libpic32.a(vector39.o)
 .bss           0x00000000        0x0 c:/program files (x86)/microchip/xc32/v1.42/bin/bin/../../lib/gcc/pic32mx/4.8.3/../../../../pic32mx/lib\libpic32.a(vector39.o)
 .reginfo       0x00000000       0x18 c:/program files (x86)/microchip/xc32/v1.42/bin/bin/../../lib/gcc/pic32mx/4.8.3/../../../../pic32mx/lib\libpic32.a(vector39.o)
 .text          0x00000000        0x0 c:/program files (x86)/microchip/xc32/v1.42/bin/bin/../../lib/gcc/pic32mx/4.8.3/../../../../pic32mx/lib\libpic32.a(vector40.o)
 .data          0x00000000        0x0 c:/program files (x86)/microchip/xc32/v1.42/bin/bin/../../lib/gcc/pic32mx/4.8.3/../../../../pic32mx/lib\libpic32.a(vector40.o)
 .bss           0x00000000        0x0 c:/program files (x86)/microchip/xc32/v1.42/bin/bin/../../lib/gcc/pic32mx/4.8.3/../../../../pic32mx/lib\libpic32.a(vector40.o)
 .reginfo       0x00000000       0x18 c:/program files (x86)/microchip/xc32/v1.42/bin/bin/../../lib/gcc/pic32mx/4.8.3/../../../../pic32mx/lib\libpic32.a(vector40.o)
 .text          0x00000000        0x0 c:/program files (x86)/microchip/xc32/v1.42/bin/bin/../../lib/gcc/pic32mx/4.8.3/../../../../pic32mx/lib\libpic32.a(vector41.o)
 .data          0x00000000        0x0 c:/program files (x86)/microchip/xc32/v1.42/bin/bin/../../lib/gcc/pic32mx/4.8.3/../../../../pic32mx/lib\libpic32.a(vector41.o)
 .bss           0x00000000        0x0 c:/program files (x86)/microchip/xc32/v1.42/bin/bin/../../lib/gcc/pic32mx/4.8.3/../../../../pic32mx/lib\libpic32.a(vector41.o)
 .reginfo       0x00000000       0x18 c:/program files (x86)/microchip/xc32/v1.42/bin/bin/../../lib/gcc/pic32mx/4.8.3/../../../../pic32mx/lib\libpic32.a(vector41.o)
 .text          0x00000000        0x0 c:/program files (x86)/microchip/xc32/v1.42/bin/bin/../../lib/gcc/pic32mx/4.8.3/../../../../pic32mx/lib\libpic32.a(vector42.o)
 .data          0x00000000        0x0 c:/program files (x86)/microchip/xc32/v1.42/bin/bin/../../lib/gcc/pic32mx/4.8.3/../../../../pic32mx/lib\libpic32.a(vector42.o)
 .bss           0x00000000        0x0 c:/program files (x86)/microchip/xc32/v1.42/bin/bin/../../lib/gcc/pic32mx/4.8.3/../../../../pic32mx/lib\libpic32.a(vector42.o)
 .reginfo       0x00000000       0x18 c:/program files (x86)/microchip/xc32/v1.42/bin/bin/../../lib/gcc/pic32mx/4.8.3/../../../../pic32mx/lib\libpic32.a(vector42.o)
 .text          0x00000000        0x0 c:/program files (x86)/microchip/xc32/v1.42/bin/bin/../../lib/gcc/pic32mx/4.8.3/../../../../pic32mx/lib\libpic32.a(vector43.o)
 .data          0x00000000        0x0 c:/program files (x86)/microchip/xc32/v1.42/bin/bin/../../lib/gcc/pic32mx/4.8.3/../../../../pic32mx/lib\libpic32.a(vector43.o)
 .bss           0x00000000        0x0 c:/program files (x86)/microchip/xc32/v1.42/bin/bin/../../lib/gcc/pic32mx/4.8.3/../../../../pic32mx/lib\libpic32.a(vector43.o)
 .reginfo       0x00000000       0x18 c:/program files (x86)/microchip/xc32/v1.42/bin/bin/../../lib/gcc/pic32mx/4.8.3/../../../../pic32mx/lib\libpic32.a(vector43.o)
 .text          0x00000000        0x0 c:/program files (x86)/microchip/xc32/v1.42/bin/bin/../../lib/gcc/pic32mx/4.8.3/../../../../pic32mx/lib\libpic32.a(vector44.o)
 .data          0x00000000        0x0 c:/program files (x86)/microchip/xc32/v1.42/bin/bin/../../lib/gcc/pic32mx/4.8.3/../../../../pic32mx/lib\libpic32.a(vector44.o)
 .bss           0x00000000        0x0 c:/program files (x86)/microchip/xc32/v1.42/bin/bin/../../lib/gcc/pic32mx/4.8.3/../../../../pic32mx/lib\libpic32.a(vector44.o)
 .reginfo       0x00000000       0x18 c:/program files (x86)/microchip/xc32/v1.42/bin/bin/../../lib/gcc/pic32mx/4.8.3/../../../../pic32mx/lib\libpic32.a(vector44.o)
 .text          0x00000000        0x0 c:/program files (x86)/microchip/xc32/v1.42/bin/bin/../../lib/gcc/pic32mx/4.8.3/../../../../pic32mx/lib\libpic32.a(vector45.o)
 .data          0x00000000        0x0 c:/program files (x86)/microchip/xc32/v1.42/bin/bin/../../lib/gcc/pic32mx/4.8.3/../../../../pic32mx/lib\libpic32.a(vector45.o)
 .bss           0x00000000        0x0 c:/program files (x86)/microchip/xc32/v1.42/bin/bin/../../lib/gcc/pic32mx/4.8.3/../../../../pic32mx/lib\libpic32.a(vector45.o)
 .reginfo       0x00000000       0x18 c:/program files (x86)/microchip/xc32/v1.42/bin/bin/../../lib/gcc/pic32mx/4.8.3/../../../../pic32mx/lib\libpic32.a(vector45.o)
 .text          0x00000000        0x0 c:/program files (x86)/microchip/xc32/v1.42/bin/bin/../../lib/gcc/pic32mx/4.8.3/../../../../pic32mx/lib\libpic32.a(vector46.o)
 .data          0x00000000        0x0 c:/program files (x86)/microchip/xc32/v1.42/bin/bin/../../lib/gcc/pic32mx/4.8.3/../../../../pic32mx/lib\libpic32.a(vector46.o)
 .bss           0x00000000        0x0 c:/program files (x86)/microchip/xc32/v1.42/bin/bin/../../lib/gcc/pic32mx/4.8.3/../../../../pic32mx/lib\libpic32.a(vector46.o)
 .reginfo       0x00000000       0x18 c:/program files (x86)/microchip/xc32/v1.42/bin/bin/../../lib/gcc/pic32mx/4.8.3/../../../../pic32mx/lib\libpic32.a(vector46.o)
 .text          0x00000000        0x0 c:/program files (x86)/microchip/xc32/v1.42/bin/bin/../../lib/gcc/pic32mx/4.8.3/../../../../pic32mx/lib\libpic32.a(vector47.o)
 .data          0x00000000        0x0 c:/program files (x86)/microchip/xc32/v1.42/bin/bin/../../lib/gcc/pic32mx/4.8.3/../../../../pic32mx/lib\libpic32.a(vector47.o)
 .bss           0x00000000        0x0 c:/program files (x86)/microchip/xc32/v1.42/bin/bin/../../lib/gcc/pic32mx/4.8.3/../../../../pic32mx/lib\libpic32.a(vector47.o)
 .reginfo       0x00000000       0x18 c:/program files (x86)/microchip/xc32/v1.42/bin/bin/../../lib/gcc/pic32mx/4.8.3/../../../../pic32mx/lib\libpic32.a(vector47.o)
 .text          0x00000000        0x0 c:/program files (x86)/microchip/xc32/v1.42/bin/bin/../../lib/gcc/pic32mx/4.8.3/../../../../pic32mx/lib\libpic32.a(vector48.o)
 .data          0x00000000        0x0 c:/program files (x86)/microchip/xc32/v1.42/bin/bin/../../lib/gcc/pic32mx/4.8.3/../../../../pic32mx/lib\libpic32.a(vector48.o)
 .bss           0x00000000        0x0 c:/program files (x86)/microchip/xc32/v1.42/bin/bin/../../lib/gcc/pic32mx/4.8.3/../../../../pic32mx/lib\libpic32.a(vector48.o)
 .reginfo       0x00000000       0x18 c:/program files (x86)/microchip/xc32/v1.42/bin/bin/../../lib/gcc/pic32mx/4.8.3/../../../../pic32mx/lib\libpic32.a(vector48.o)
 .text          0x00000000        0x0 c:/program files (x86)/microchip/xc32/v1.42/bin/bin/../../lib/gcc/pic32mx/4.8.3/../../../../pic32mx/lib\libpic32.a(vector49.o)
 .data          0x00000000        0x0 c:/program files (x86)/microchip/xc32/v1.42/bin/bin/../../lib/gcc/pic32mx/4.8.3/../../../../pic32mx/lib\libpic32.a(vector49.o)
 .bss           0x00000000        0x0 c:/program files (x86)/microchip/xc32/v1.42/bin/bin/../../lib/gcc/pic32mx/4.8.3/../../../../pic32mx/lib\libpic32.a(vector49.o)
 .reginfo       0x00000000       0x18 c:/program files (x86)/microchip/xc32/v1.42/bin/bin/../../lib/gcc/pic32mx/4.8.3/../../../../pic32mx/lib\libpic32.a(vector49.o)
 .text          0x00000000        0x0 c:/program files (x86)/microchip/xc32/v1.42/bin/bin/../../lib/gcc/pic32mx/4.8.3/../../../../pic32mx/lib\libpic32.a(vector50.o)
 .data          0x00000000        0x0 c:/program files (x86)/microchip/xc32/v1.42/bin/bin/../../lib/gcc/pic32mx/4.8.3/../../../../pic32mx/lib\libpic32.a(vector50.o)
 .bss           0x00000000        0x0 c:/program files (x86)/microchip/xc32/v1.42/bin/bin/../../lib/gcc/pic32mx/4.8.3/../../../../pic32mx/lib\libpic32.a(vector50.o)
 .reginfo       0x00000000       0x18 c:/program files (x86)/microchip/xc32/v1.42/bin/bin/../../lib/gcc/pic32mx/4.8.3/../../../../pic32mx/lib\libpic32.a(vector50.o)
 .text          0x00000000        0x0 c:/program files (x86)/microchip/xc32/v1.42/bin/bin/../../lib/gcc/pic32mx/4.8.3/../../../../pic32mx/lib\libpic32.a(vector51.o)
 .data          0x00000000        0x0 c:/program files (x86)/microchip/xc32/v1.42/bin/bin/../../lib/gcc/pic32mx/4.8.3/../../../../pic32mx/lib\libpic32.a(vector51.o)
 .bss           0x00000000        0x0 c:/program files (x86)/microchip/xc32/v1.42/bin/bin/../../lib/gcc/pic32mx/4.8.3/../../../../pic32mx/lib\libpic32.a(vector51.o)
 .reginfo       0x00000000       0x18 c:/program files (x86)/microchip/xc32/v1.42/bin/bin/../../lib/gcc/pic32mx/4.8.3/../../../../pic32mx/lib\libpic32.a(vector51.o)
 .text          0x00000000        0x0 c:/program files (x86)/microchip/xc32/v1.42/bin/bin/../../lib/gcc/pic32mx/4.8.3/../../../../pic32mx/lib\libpic32.a(defaultinterrupt.o)
 .data          0x00000000        0x0 c:/program files (x86)/microchip/xc32/v1.42/bin/bin/../../lib/gcc/pic32mx/4.8.3/../../../../pic32mx/lib\libpic32.a(defaultinterrupt.o)
 .bss           0x00000000        0x0 c:/program files (x86)/microchip/xc32/v1.42/bin/bin/../../lib/gcc/pic32mx/4.8.3/../../../../pic32mx/lib\libpic32.a(defaultinterrupt.o)
 .reginfo       0x00000000       0x18 c:/program files (x86)/microchip/xc32/v1.42/bin/bin/../../lib/gcc/pic32mx/4.8.3/../../../../pic32mx/lib\libpic32.a(defaultinterrupt.o)
 .text          0x00000000        0x0 c:/program files (x86)/microchip/xc32/v1.42/bin/bin/../../lib/gcc/pic32mx/4.8.3/../../../../pic32mx/lib\libc.a(atoi.o)
 .data          0x00000000        0x0 c:/program files (x86)/microchip/xc32/v1.42/bin/bin/../../lib/gcc/pic32mx/4.8.3/../../../../pic32mx/lib\libc.a(atoi.o)
 .bss           0x00000000        0x0 c:/program files (x86)/microchip/xc32/v1.42/bin/bin/../../lib/gcc/pic32mx/4.8.3/../../../../pic32mx/lib\libc.a(atoi.o)
 .reginfo       0x00000000       0x18 c:/program files (x86)/microchip/xc32/v1.42/bin/bin/../../lib/gcc/pic32mx/4.8.3/../../../../pic32mx/lib\libc.a(atoi.o)
 .text          0x00000000        0x0 c:/program files (x86)/microchip/xc32/v1.42/bin/bin/../../lib/gcc/pic32mx/4.8.3/../../../../pic32mx/lib\libc.a(ctype.o)
 .data          0x00000000        0x0 c:/program files (x86)/microchip/xc32/v1.42/bin/bin/../../lib/gcc/pic32mx/4.8.3/../../../../pic32mx/lib\libc.a(ctype.o)
 .bss           0x00000000        0x0 c:/program files (x86)/microchip/xc32/v1.42/bin/bin/../../lib/gcc/pic32mx/4.8.3/../../../../pic32mx/lib\libc.a(ctype.o)
 .reginfo       0x00000000       0x18 c:/program files (x86)/microchip/xc32/v1.42/bin/bin/../../lib/gcc/pic32mx/4.8.3/../../../../pic32mx/lib\libc.a(ctype.o)
 .text          0x00000000        0x0 c:/program files (x86)/microchip/xc32/v1.42/bin/bin/../../lib/gcc/pic32mx/4.8.3/../../../../pic32mx/lib\libc.a(strcat.o)
 .data          0x00000000        0x0 c:/program files (x86)/microchip/xc32/v1.42/bin/bin/../../lib/gcc/pic32mx/4.8.3/../../../../pic32mx/lib\libc.a(strcat.o)
 .bss           0x00000000        0x0 c:/program files (x86)/microchip/xc32/v1.42/bin/bin/../../lib/gcc/pic32mx/4.8.3/../../../../pic32mx/lib\libc.a(strcat.o)
 .reginfo       0x00000000       0x18 c:/program files (x86)/microchip/xc32/v1.42/bin/bin/../../lib/gcc/pic32mx/4.8.3/../../../../pic32mx/lib\libc.a(strcat.o)
 .text.strcat   0x00000000       0x44 c:/program files (x86)/microchip/xc32/v1.42/bin/bin/../../lib/gcc/pic32mx/4.8.3/../../../../pic32mx/lib\libc.a(strcat.o)
 .text          0x00000000        0x0 c:/program files (x86)/microchip/xc32/v1.42/bin/bin/../../lib/gcc/pic32mx/4.8.3/../../../../pic32mx/lib\libc.a(sprintf_cdnopuxX.eo)
 .data          0x00000000        0x0 c:/program files (x86)/microchip/xc32/v1.42/bin/bin/../../lib/gcc/pic32mx/4.8.3/../../../../pic32mx/lib\libc.a(sprintf_cdnopuxX.eo)
 .bss           0x00000000        0x0 c:/program files (x86)/microchip/xc32/v1.42/bin/bin/../../lib/gcc/pic32mx/4.8.3/../../../../pic32mx/lib\libc.a(sprintf_cdnopuxX.eo)
 .reginfo       0x00000000       0x18 c:/program files (x86)/microchip/xc32/v1.42/bin/bin/../../lib/gcc/pic32mx/4.8.3/../../../../pic32mx/lib\libc.a(sprintf_cdnopuxX.eo)
 .text          0x00000000        0x0 c:/program files (x86)/microchip/xc32/v1.42/bin/bin/../../lib/gcc/pic32mx/4.8.3/../../../../pic32mx/lib\libc.a(doprnt_cdnopuxX.eo)
 .data          0x00000000        0x0 c:/program files (x86)/microchip/xc32/v1.42/bin/bin/../../lib/gcc/pic32mx/4.8.3/../../../../pic32mx/lib\libc.a(doprnt_cdnopuxX.eo)
 .bss           0x00000000        0x0 c:/program files (x86)/microchip/xc32/v1.42/bin/bin/../../lib/gcc/pic32mx/4.8.3/../../../../pic32mx/lib\libc.a(doprnt_cdnopuxX.eo)
 .reginfo       0x00000000       0x18 c:/program files (x86)/microchip/xc32/v1.42/bin/bin/../../lib/gcc/pic32mx/4.8.3/../../../../pic32mx/lib\libc.a(doprnt_cdnopuxX.eo)
 .text          0x00000000        0x0 c:/program files (x86)/microchip/xc32/v1.42/bin/bin/../../lib/gcc/pic32mx/4.8.3/../../../../pic32mx/lib\libc.a(_fputc_simple.o)
 .data          0x00000000        0x0 c:/program files (x86)/microchip/xc32/v1.42/bin/bin/../../lib/gcc/pic32mx/4.8.3/../../../../pic32mx/lib\libc.a(_fputc_simple.o)
 .bss           0x00000000        0x0 c:/program files (x86)/microchip/xc32/v1.42/bin/bin/../../lib/gcc/pic32mx/4.8.3/../../../../pic32mx/lib\libc.a(_fputc_simple.o)
 .reginfo       0x00000000       0x18 c:/program files (x86)/microchip/xc32/v1.42/bin/bin/../../lib/gcc/pic32mx/4.8.3/../../../../pic32mx/lib\libc.a(_fputc_simple.o)
 .text          0x00000000        0x0 c:/program files (x86)/microchip/xc32/v1.42/bin/bin/../../lib/gcc/pic32mx/4.8.3/../../../../pic32mx/lib\libc.a(_iob.o)
 .data          0x00000000       0xa4 c:/program files (x86)/microchip/xc32/v1.42/bin/bin/../../lib/gcc/pic32mx/4.8.3/../../../../pic32mx/lib\libc.a(_iob.o)
 .reginfo       0x00000000       0x18 c:/program files (x86)/microchip/xc32/v1.42/bin/bin/../../lib/gcc/pic32mx/4.8.3/../../../../pic32mx/lib\libc.a(_iob.o)
 .text          0x00000000        0x0 c:/program files (x86)/microchip/xc32/v1.42/bin/bin/../../lib/gcc/pic32mx/4.8.3/../../../../pic32mx/lib\libc.a(_flsbuf_simple.o)
 .data          0x00000000        0x0 c:/program files (x86)/microchip/xc32/v1.42/bin/bin/../../lib/gcc/pic32mx/4.8.3/../../../../pic32mx/lib\libc.a(_flsbuf_simple.o)
 .bss           0x00000000        0x0 c:/program files (x86)/microchip/xc32/v1.42/bin/bin/../../lib/gcc/pic32mx/4.8.3/../../../../pic32mx/lib\libc.a(_flsbuf_simple.o)
 .reginfo       0x00000000       0x18 c:/program files (x86)/microchip/xc32/v1.42/bin/bin/../../lib/gcc/pic32mx/4.8.3/../../../../pic32mx/lib\libc.a(_flsbuf_simple.o)
 .text          0x00000000        0x0 c:/program files (x86)/microchip/xc32/v1.42/bin/bin/../../lib/gcc/pic32mx/4.8.3/../../../../pic32mx/lib\libpic32.a(write.o)
 .data          0x00000000        0x0 c:/program files (x86)/microchip/xc32/v1.42/bin/bin/../../lib/gcc/pic32mx/4.8.3/../../../../pic32mx/lib\libpic32.a(write.o)
 .bss           0x00000000        0x0 c:/program files (x86)/microchip/xc32/v1.42/bin/bin/../../lib/gcc/pic32mx/4.8.3/../../../../pic32mx/lib\libpic32.a(write.o)
 .reginfo       0x00000000       0x18 c:/program files (x86)/microchip/xc32/v1.42/bin/bin/../../lib/gcc/pic32mx/4.8.3/../../../../pic32mx/lib\libpic32.a(write.o)
 .text          0x00000000        0x0 c:/program files (x86)/microchip/xc32/v1.42/bin/bin/../../lib/gcc/pic32mx/4.8.3/../../../../pic32mx/lib\libpic32.a(_mon_putc.o)
 .data          0x00000000        0x0 c:/program files (x86)/microchip/xc32/v1.42/bin/bin/../../lib/gcc/pic32mx/4.8.3/../../../../pic32mx/lib\libpic32.a(_mon_putc.o)
 .bss           0x00000000        0x0 c:/program files (x86)/microchip/xc32/v1.42/bin/bin/../../lib/gcc/pic32mx/4.8.3/../../../../pic32mx/lib\libpic32.a(_mon_putc.o)
 .reginfo       0x00000000       0x18 c:/program files (x86)/microchip/xc32/v1.42/bin/bin/../../lib/gcc/pic32mx/4.8.3/../../../../pic32mx/lib\libpic32.a(_mon_putc.o)
 .text          0x00000000        0x0 c:/program files (x86)/microchip/xc32/v1.42/bin/bin/../../lib/gcc/pic32mx/4.8.3/../../../../pic32mx/lib\libpic32.a(xc32_uart.o)
 .data          0x00000000        0x0 c:/program files (x86)/microchip/xc32/v1.42/bin/bin/../../lib/gcc/pic32mx/4.8.3/../../../../pic32mx/lib\libpic32.a(xc32_uart.o)
 .bss           0x00000000        0x0 c:/program files (x86)/microchip/xc32/v1.42/bin/bin/../../lib/gcc/pic32mx/4.8.3/../../../../pic32mx/lib\libpic32.a(xc32_uart.o)
 .reginfo       0x00000000       0x18 c:/program files (x86)/microchip/xc32/v1.42/bin/bin/../../lib/gcc/pic32mx/4.8.3/../../../../pic32mx/lib\libpic32.a(xc32_uart.o)
 .data          0x00000000        0x0 c:/program files (x86)/microchip/xc32/v1.42/bin/bin/../../lib/gcc/pic32mx/4.8.3\libgcc.a(_udivdi3.o)
 .bss           0x00000000        0x0 c:/program files (x86)/microchip/xc32/v1.42/bin/bin/../../lib/gcc/pic32mx/4.8.3\libgcc.a(_udivdi3.o)
 .reginfo       0x00000000       0x18 c:/program files (x86)/microchip/xc32/v1.42/bin/bin/../../lib/gcc/pic32mx/4.8.3\libgcc.a(_udivdi3.o)
 .data          0x00000000        0x0 c:/program files (x86)/microchip/xc32/v1.42/bin/bin/../../lib/gcc/pic32mx/4.8.3\libgcc.a(_umoddi3.o)
 .bss           0x00000000        0x0 c:/program files (x86)/microchip/xc32/v1.42/bin/bin/../../lib/gcc/pic32mx/4.8.3\libgcc.a(_umoddi3.o)
 .reginfo       0x00000000       0x18 c:/program files (x86)/microchip/xc32/v1.42/bin/bin/../../lib/gcc/pic32mx/4.8.3\libgcc.a(_umoddi3.o)

Memory Configuration

Name             Origin             Length             Attributes
kseg0_program_mem 0x9d000000         0x00080000         xr
kseg0_boot_mem   0x9fc00490         0x00000970
exception_mem    0x9fc01000         0x00001000
kseg1_boot_mem   0xbfc00000         0x00000490
debug_exec_mem   0xbfc02000         0x00000ff0
config3          0xbfc02ff0         0x00000004
config2          0xbfc02ff4         0x00000004
config1          0xbfc02ff8         0x00000004
config0          0xbfc02ffc         0x00000004
kseg1_data_mem   0xa0000000         0x00020000         w !x
sfrs             0xbf800000         0x00100000
configsfrs       0xbfc02ff0         0x00000010
*default*        0x00000000         0xffffffff

Linker script and memory map

LOAD c:/program files (x86)/microchip/xc32/v1.42/bin/bin/../../lib/gcc/pic32mx/4.8.3/../../../../pic32mx/lib/./proc/32MX795F512L/crt0_mips32r2.o
LOAD c:/program files (x86)/microchip/xc32/v1.42/bin/bin/../../lib/gcc/pic32mx/4.8.3/../../../../pic32mx/lib\debug-exception-return.o
LOAD build/milestone1/production/_ext/1864120335/drv_tmr_static.o
LOAD build/milestone1/production/_ext/1864120335/drv_tmr_mapping.o
LOAD build/milestone1/production/_ext/192191419/drv_usart_mapping.o
LOAD build/milestone1/production/_ext/192191419/drv_usart_static.o
LOAD build/milestone1/production/_ext/192191419/drv_usart_static_byte_model.o
LOAD build/milestone1/production/_ext/383799649/sys_clk_static.o
LOAD build/milestone1/production/_ext/956857457/sys_ports_static.o
LOAD build/milestone1/production/_ext/1555642536/system_init.o
LOAD build/milestone1/production/_ext/1555642536/system_interrupt.o
LOAD build/milestone1/production/_ext/1555642536/system_exceptions.o
LOAD build/milestone1/production/_ext/1555642536/system_tasks.o
LOAD build/milestone1/production/_ext/1555642536/system_interrupt_a.o
LOAD build/milestone1/production/_ext/1555642536/rtos_hooks.o
LOAD build/milestone1/production/_ext/1360937237/app.o
LOAD build/milestone1/production/_ext/1360937237/main.o
LOAD build/milestone1/production/_ext/1360937237/navigation.o
LOAD build/milestone1/production/_ext/1360937237/mapping.o
LOAD build/milestone1/production/_ext/1360937237/communication.o
LOAD build/milestone1/production/_ext/1360937237/ms2test.o
LOAD build/milestone1/production/_ext/1423261102/osal_freertos.o
LOAD build/milestone1/production/_ext/2019779704/sys_devcon.o
LOAD build/milestone1/production/_ext/2019779704/sys_devcon_pic32mx.o
LOAD build/milestone1/production/_ext/1620769490/sys_int_pic32.o
LOAD build/milestone1/production/_ext/1366647692/heap_1.o
LOAD build/milestone1/production/_ext/1475386849/port.o
LOAD build/milestone1/production/_ext/1475386849/port_asm.o
LOAD build/milestone1/production/_ext/1241959881/croutine.o
LOAD build/milestone1/production/_ext/1241959881/list.o
LOAD build/milestone1/production/_ext/1241959881/queue.o
LOAD build/milestone1/production/_ext/1241959881/tasks.o
LOAD build/milestone1/production/_ext/1241959881/timers.o
LOAD build/milestone1/production/_ext/1241959881/event_groups.o
LOAD build/milestone1/production/_ext/1360937237/debug.o
LOAD build/milestone1/production/_ext/1360937237/motor.o
LOAD build/milestone1/production/_ext/1360937237/myjson.o
LOAD ..\..\..\..\..\..\..\microchip\harmony\v1_09\bin\framework\peripheral\PIC32MX795F512L_peripherals.a
                0x00000001                __MPLAB_BUILD = 0x1
                0x00000000                _min_heap_size = 0x0
LOAD c:/program files (x86)/microchip/xc32/v1.42/bin/bin/../../lib/gcc/pic32mx/4.8.3/../../../../pic32mx/lib/./proc/32MX795F512L\default_isr_vectors.o
LOAD c:/program files (x86)/microchip/xc32/v1.42/bin/bin/../../lib/gcc/pic32mx/4.8.3/../../../../pic32mx/lib\pic32_software_reset.o
                0x00000400                PROVIDE (_min_stack_size, 0x400)
LOAD c:/program files (x86)/microchip/xc32/v1.42/bin/bin/../../lib/gcc/pic32mx/4.8.3/../../../../pic32mx/lib/./proc/32MX795F512L\processor.o
START GROUP
LOAD libmchp_peripheral.a
END GROUP
START GROUP
LOAD libmchp_peripheral_32MX795F512L.a
END GROUP
                0x00000001                PROVIDE (_vector_spacing, 0x1)
                0x9fc01000                PROVIDE (_ebase_address, 0x9fc01000)
                0xbfc00000                _RESET_ADDR = 0xbfc00000
                0xbfc00380                _BEV_EXCPT_ADDR = 0xbfc00380
                0xbfc00480                _DBG_EXCPT_ADDR = 0xbfc00480
                0xbfc02000                _DBG_CODE_ADDR = 0xbfc02000
                0x00000ff0                _DBG_CODE_SIZE = 0xff0
                0x9fc01180                _GEN_EXCPT_ADDR = (_ebase_address + 0x180)

.config_BFC02FF0
                0xbfc02ff0        0x4
 *(.config_BFC02FF0)
 .config_BFC02FF0
                0xbfc02ff0        0x4 build/milestone1/production/_ext/1555642536/system_init.o

.config_BFC02FF4
                0xbfc02ff4        0x4
 *(.config_BFC02FF4)
 .config_BFC02FF4
                0xbfc02ff4        0x4 build/milestone1/production/_ext/1555642536/system_init.o

.config_BFC02FF8
                0xbfc02ff8        0x4
 *(.config_BFC02FF8)
 .config_BFC02FF8
                0xbfc02ff8        0x4 build/milestone1/production/_ext/1555642536/system_init.o

.config_BFC02FFC
                0xbfc02ffc        0x4
 *(.config_BFC02FFC)
 .config_BFC02FFC
                0xbfc02ffc        0x4 build/milestone1/production/_ext/1555642536/system_init.o
                0xbfc02000                PROVIDE (_DBG_CODE_ADDR, 0xbfc02000)
                0x00000ff0                PROVIDE (_DBG_CODE_SIZE, 0xff0)

.reset          0xbfc00000      0x208
 *(.reset)
 .reset         0xbfc00000        0x8 c:/program files (x86)/microchip/xc32/v1.42/bin/bin/../../lib/gcc/pic32mx/4.8.3/../../../../pic32mx/lib/./proc/32MX795F512L/crt0_mips32r2.o
                0xbfc00000                _reset
 *(.reset.startup)
 .reset.startup
                0xbfc00008      0x200 c:/program files (x86)/microchip/xc32/v1.42/bin/bin/../../lib/gcc/pic32mx/4.8.3/../../../../pic32mx/lib/./proc/32MX795F512L/crt0_mips32r2.o

.bev_excpt      0xbfc00380       0x10
 *(.bev_handler)
 .bev_handler   0xbfc00380       0x10 c:/program files (x86)/microchip/xc32/v1.42/bin/bin/../../lib/gcc/pic32mx/4.8.3/../../../../pic32mx/lib/./proc/32MX795F512L/crt0_mips32r2.o

.dbg_excpt      0xbfc00480        0x0
                0xbfc00480                . = (. + DEFINED (_DEBUGGER)?0x8:0x0)

.dbg_code       0xbfc02000        0x0
                0xbfc02000                . = (. + DEFINED (_DEBUGGER)?_DBG_CODE_SIZE:0x0)

.app_excpt      0x9fc01180       0x10
 *(.gen_handler)
 .gen_handler   0x9fc01180       0x10 c:/program files (x86)/microchip/xc32/v1.42/bin/bin/../../lib/gcc/pic32mx/4.8.3/../../../../pic32mx/lib/./proc/32MX795F512L/crt0_mips32r2.o

.vector_0       0x9fc01200        0x8
 *(.vector_0)
 .vector_0      0x9fc01200        0x8 c:/program files (x86)/microchip/xc32/v1.42/bin/bin/../../lib/gcc/pic32mx/4.8.3/../../../../pic32mx/lib\libpic32.a(vector0.o)
                0x9fc01200                __vector_dispatch_0
                0x00000001                ASSERT (((_vector_spacing == 0x0) || (SIZEOF (.vector_0) <= (_vector_spacing << 0x5))), function at exception vector 0 too large)

.vector_1       0x9fc01220        0x8
 *(.vector_1)
 .vector_1      0x9fc01220        0x8 build/milestone1/production/_ext/1475386849/port.o
                0x9fc01220                __vector_dispatch_1
                0x00000001                ASSERT (((_vector_spacing == 0x0) || (SIZEOF (.vector_1) <= (_vector_spacing << 0x5))), function at exception vector 1 too large)

.vector_2       0x9fc01240        0x8
 *(.vector_2)
 .vector_2      0x9fc01240        0x8 c:/program files (x86)/microchip/xc32/v1.42/bin/bin/../../lib/gcc/pic32mx/4.8.3/../../../../pic32mx/lib\libpic32.a(vector2.o)
                0x9fc01240                __vector_dispatch_2
                0x00000001                ASSERT (((_vector_spacing == 0x0) || (SIZEOF (.vector_2) <= (_vector_spacing << 0x5))), function at exception vector 2 too large)

.vector_3       0x9fc01260        0x8
 *(.vector_3)
 .vector_3      0x9fc01260        0x8 c:/program files (x86)/microchip/xc32/v1.42/bin/bin/../../lib/gcc/pic32mx/4.8.3/../../../../pic32mx/lib\libpic32.a(vector3.o)
                0x9fc01260                __vector_dispatch_3
                0x00000001                ASSERT (((_vector_spacing == 0x0) || (SIZEOF (.vector_3) <= (_vector_spacing << 0x5))), function at exception vector 3 too large)

.vector_4       0x9fc01280        0x8
 *(.vector_4)
 .vector_4      0x9fc01280        0x8 build/milestone1/production/_ext/1475386849/port.o
                0x9fc01280                __vector_dispatch_4
                0x00000001                ASSERT (((_vector_spacing == 0x0) || (SIZEOF (.vector_4) <= (_vector_spacing << 0x5))), function at exception vector 4 too large)

.vector_5       0x9fc012a0        0x8
 *(.vector_5)
 .vector_5      0x9fc012a0        0x8 c:/program files (x86)/microchip/xc32/v1.42/bin/bin/../../lib/gcc/pic32mx/4.8.3/../../../../pic32mx/lib\libpic32.a(vector5.o)
                0x9fc012a0                __vector_dispatch_5
                0x00000001                ASSERT (((_vector_spacing == 0x0) || (SIZEOF (.vector_5) <= (_vector_spacing << 0x5))), function at exception vector 5 too large)

.vector_6       0x9fc012c0        0x8
 *(.vector_6)
 .vector_6      0x9fc012c0        0x8 c:/program files (x86)/microchip/xc32/v1.42/bin/bin/../../lib/gcc/pic32mx/4.8.3/../../../../pic32mx/lib\libpic32.a(vector6.o)
                0x9fc012c0                __vector_dispatch_6
                0x00000001                ASSERT (((_vector_spacing == 0x0) || (SIZEOF (.vector_6) <= (_vector_spacing << 0x5))), function at exception vector 6 too large)

.vector_7       0x9fc012e0        0x8
 *(.vector_7)
 .vector_7      0x9fc012e0        0x8 c:/program files (x86)/microchip/xc32/v1.42/bin/bin/../../lib/gcc/pic32mx/4.8.3/../../../../pic32mx/lib\libpic32.a(vector7.o)
                0x9fc012e0                __vector_dispatch_7
                0x00000001                ASSERT (((_vector_spacing == 0x0) || (SIZEOF (.vector_7) <= (_vector_spacing << 0x5))), function at exception vector 7 too large)

.vector_8       0x9fc01300       0x10
 *(.vector_8)
 .vector_8      0x9fc01300       0x10 build/milestone1/production/_ext/1555642536/system_interrupt_a.o
                0x9fc01300                __vector_dispatch_8
                0x00000001                ASSERT (((_vector_spacing == 0x0) || (SIZEOF (.vector_8) <= (_vector_spacing << 0x5))), function at exception vector 8 too large)

.vector_9       0x9fc01320        0x8
 *(.vector_9)
 .vector_9      0x9fc01320        0x8 c:/program files (x86)/microchip/xc32/v1.42/bin/bin/../../lib/gcc/pic32mx/4.8.3/../../../../pic32mx/lib\libpic32.a(vector9.o)
                0x9fc01320                __vector_dispatch_9
                0x00000001                ASSERT (((_vector_spacing == 0x0) || (SIZEOF (.vector_9) <= (_vector_spacing << 0x5))), function at exception vector 9 too large)

.vector_10      0x9fc01340        0x8
 *(.vector_10)
 .vector_10     0x9fc01340        0x8 c:/program files (x86)/microchip/xc32/v1.42/bin/bin/../../lib/gcc/pic32mx/4.8.3/../../../../pic32mx/lib\libpic32.a(vector10.o)
                0x9fc01340                __vector_dispatch_10
                0x00000001                ASSERT (((_vector_spacing == 0x0) || (SIZEOF (.vector_10) <= (_vector_spacing << 0x5))), function at exception vector 10 too large)

.vector_11      0x9fc01360        0x8
 *(.vector_11)
 .vector_11     0x9fc01360        0x8 c:/program files (x86)/microchip/xc32/v1.42/bin/bin/../../lib/gcc/pic32mx/4.8.3/../../../../pic32mx/lib\libpic32.a(vector11.o)
                0x9fc01360                __vector_dispatch_11
                0x00000001                ASSERT (((_vector_spacing == 0x0) || (SIZEOF (.vector_11) <= (_vector_spacing << 0x5))), function at exception vector 11 too large)

.vector_12      0x9fc01380       0x10
 *(.vector_12)
 .vector_12     0x9fc01380       0x10 build/milestone1/production/_ext/1555642536/system_interrupt_a.o
                0x9fc01380                __vector_dispatch_12
                0x00000001                ASSERT (((_vector_spacing == 0x0) || (SIZEOF (.vector_12) <= (_vector_spacing << 0x5))), function at exception vector 12 too large)

.vector_13      0x9fc013a0        0x8
 *(.vector_13)
 .vector_13     0x9fc013a0        0x8 c:/program files (x86)/microchip/xc32/v1.42/bin/bin/../../lib/gcc/pic32mx/4.8.3/../../../../pic32mx/lib\libpic32.a(vector13.o)
                0x9fc013a0                __vector_dispatch_13
                0x00000001                ASSERT (((_vector_spacing == 0x0) || (SIZEOF (.vector_13) <= (_vector_spacing << 0x5))), function at exception vector 13 too large)

.vector_14      0x9fc013c0        0x8
 *(.vector_14)
 .vector_14     0x9fc013c0        0x8 c:/program files (x86)/microchip/xc32/v1.42/bin/bin/../../lib/gcc/pic32mx/4.8.3/../../../../pic32mx/lib\libpic32.a(vector14.o)
                0x9fc013c0                __vector_dispatch_14
                0x00000001                ASSERT (((_vector_spacing == 0x0) || (SIZEOF (.vector_14) <= (_vector_spacing << 0x5))), function at exception vector 14 too large)

.vector_15      0x9fc013e0        0x8
 *(.vector_15)
 .vector_15     0x9fc013e0        0x8 c:/program files (x86)/microchip/xc32/v1.42/bin/bin/../../lib/gcc/pic32mx/4.8.3/../../../../pic32mx/lib\libpic32.a(vector15.o)
                0x9fc013e0                __vector_dispatch_15
                0x00000001                ASSERT (((_vector_spacing == 0x0) || (SIZEOF (.vector_15) <= (_vector_spacing << 0x5))), function at exception vector 15 too large)

.vector_16      0x9fc01400       0x10
 *(.vector_16)
 .vector_16     0x9fc01400       0x10 build/milestone1/production/_ext/1555642536/system_interrupt_a.o
                0x9fc01400                __vector_dispatch_16
                0x00000001                ASSERT (((_vector_spacing == 0x0) || (SIZEOF (.vector_16) <= (_vector_spacing << 0x5))), function at exception vector 16 too large)

.vector_17      0x9fc01420        0x8
 *(.vector_17)
 .vector_17     0x9fc01420        0x8 c:/program files (x86)/microchip/xc32/v1.42/bin/bin/../../lib/gcc/pic32mx/4.8.3/../../../../pic32mx/lib\libpic32.a(vector17.o)
                0x9fc01420                __vector_dispatch_17
                0x00000001                ASSERT (((_vector_spacing == 0x0) || (SIZEOF (.vector_17) <= (_vector_spacing << 0x5))), function at exception vector 17 too large)

.vector_18      0x9fc01440        0x8
 *(.vector_18)
 .vector_18     0x9fc01440        0x8 c:/program files (x86)/microchip/xc32/v1.42/bin/bin/../../lib/gcc/pic32mx/4.8.3/../../../../pic32mx/lib\libpic32.a(vector18.o)
                0x9fc01440                __vector_dispatch_18
                0x00000001                ASSERT (((_vector_spacing == 0x0) || (SIZEOF (.vector_18) <= (_vector_spacing << 0x5))), function at exception vector 18 too large)

.vector_19      0x9fc01460        0x8
 *(.vector_19)
 .vector_19     0x9fc01460        0x8 c:/program files (x86)/microchip/xc32/v1.42/bin/bin/../../lib/gcc/pic32mx/4.8.3/../../../../pic32mx/lib\libpic32.a(vector19.o)
                0x9fc01460                __vector_dispatch_19
                0x00000001                ASSERT (((_vector_spacing == 0x0) || (SIZEOF (.vector_19) <= (_vector_spacing << 0x5))), function at exception vector 19 too large)

.vector_20      0x9fc01480       0x10
 *(.vector_20)
 .vector_20     0x9fc01480       0x10 build/milestone1/production/_ext/1555642536/system_interrupt_a.o
                0x9fc01480                __vector_dispatch_20
                0x00000001                ASSERT (((_vector_spacing == 0x0) || (SIZEOF (.vector_20) <= (_vector_spacing << 0x5))), function at exception vector 20 too large)

.vector_21      0x9fc014a0        0x8
 *(.vector_21)
 .vector_21     0x9fc014a0        0x8 c:/program files (x86)/microchip/xc32/v1.42/bin/bin/../../lib/gcc/pic32mx/4.8.3/../../../../pic32mx/lib\libpic32.a(vector21.o)
                0x9fc014a0                __vector_dispatch_21
                0x00000001                ASSERT (((_vector_spacing == 0x0) || (SIZEOF (.vector_21) <= (_vector_spacing << 0x5))), function at exception vector 21 too large)

.vector_22      0x9fc014c0        0x8
 *(.vector_22)
 .vector_22     0x9fc014c0        0x8 c:/program files (x86)/microchip/xc32/v1.42/bin/bin/../../lib/gcc/pic32mx/4.8.3/../../../../pic32mx/lib\libpic32.a(vector22.o)
                0x9fc014c0                __vector_dispatch_22
                0x00000001                ASSERT (((_vector_spacing == 0x0) || (SIZEOF (.vector_22) <= (_vector_spacing << 0x5))), function at exception vector 22 too large)

.vector_23      0x9fc014e0        0x8
 *(.vector_23)
 .vector_23     0x9fc014e0        0x8 c:/program files (x86)/microchip/xc32/v1.42/bin/bin/../../lib/gcc/pic32mx/4.8.3/../../../../pic32mx/lib\libpic32.a(vector23.o)
                0x9fc014e0                __vector_dispatch_23
                0x00000001                ASSERT (((_vector_spacing == 0x0) || (SIZEOF (.vector_23) <= (_vector_spacing << 0x5))), function at exception vector 23 too large)

.vector_24      0x9fc01500       0x10
 *(.vector_24)
 .vector_24     0x9fc01500       0x10 build/milestone1/production/_ext/1555642536/system_interrupt_a.o
                0x9fc01500                __vector_dispatch_24
                0x00000001                ASSERT (((_vector_spacing == 0x0) || (SIZEOF (.vector_24) <= (_vector_spacing << 0x5))), function at exception vector 24 too large)

.vector_25      0x9fc01520        0x8
 *(.vector_25)
 .vector_25     0x9fc01520        0x8 c:/program files (x86)/microchip/xc32/v1.42/bin/bin/../../lib/gcc/pic32mx/4.8.3/../../../../pic32mx/lib\libpic32.a(vector25.o)
                0x9fc01520                __vector_dispatch_25
                0x00000001                ASSERT (((_vector_spacing == 0x0) || (SIZEOF (.vector_25) <= (_vector_spacing << 0x5))), function at exception vector 25 too large)

.vector_26      0x9fc01540        0x8
 *(.vector_26)
 .vector_26     0x9fc01540        0x8 c:/program files (x86)/microchip/xc32/v1.42/bin/bin/../../lib/gcc/pic32mx/4.8.3/../../../../pic32mx/lib\libpic32.a(vector26.o)
                0x9fc01540                __vector_dispatch_26
                0x00000001                ASSERT (((_vector_spacing == 0x0) || (SIZEOF (.vector_26) <= (_vector_spacing << 0x5))), function at exception vector 26 too large)

.vector_27      0x9fc01560        0x8
 *(.vector_27)
 .vector_27     0x9fc01560        0x8 c:/program files (x86)/microchip/xc32/v1.42/bin/bin/../../lib/gcc/pic32mx/4.8.3/../../../../pic32mx/lib\libpic32.a(vector27.o)
                0x9fc01560                __vector_dispatch_27
                0x00000001                ASSERT (((_vector_spacing == 0x0) || (SIZEOF (.vector_27) <= (_vector_spacing << 0x5))), function at exception vector 27 too large)

.vector_28      0x9fc01580        0x8
 *(.vector_28)
 .vector_28     0x9fc01580        0x8 c:/program files (x86)/microchip/xc32/v1.42/bin/bin/../../lib/gcc/pic32mx/4.8.3/../../../../pic32mx/lib\libpic32.a(vector28.o)
                0x9fc01580                __vector_dispatch_28
                0x00000001                ASSERT (((_vector_spacing == 0x0) || (SIZEOF (.vector_28) <= (_vector_spacing << 0x5))), function at exception vector 28 too large)

.vector_29      0x9fc015a0        0x8
 *(.vector_29)
 .vector_29     0x9fc015a0        0x8 c:/program files (x86)/microchip/xc32/v1.42/bin/bin/../../lib/gcc/pic32mx/4.8.3/../../../../pic32mx/lib\libpic32.a(vector29.o)
                0x9fc015a0                __vector_dispatch_29
                0x00000001                ASSERT (((_vector_spacing == 0x0) || (SIZEOF (.vector_29) <= (_vector_spacing << 0x5))), function at exception vector 29 too large)

.vector_30      0x9fc015c0        0x8
 *(.vector_30)
 .vector_30     0x9fc015c0        0x8 c:/program files (x86)/microchip/xc32/v1.42/bin/bin/../../lib/gcc/pic32mx/4.8.3/../../../../pic32mx/lib\libpic32.a(vector30.o)
                0x9fc015c0                __vector_dispatch_30
                0x00000001                ASSERT (((_vector_spacing == 0x0) || (SIZEOF (.vector_30) <= (_vector_spacing << 0x5))), function at exception vector 30 too large)

.vector_31      0x9fc015e0        0x8
 *(.vector_31)
 .vector_31     0x9fc015e0        0x8 c:/program files (x86)/microchip/xc32/v1.42/bin/bin/../../lib/gcc/pic32mx/4.8.3/../../../../pic32mx/lib\libpic32.a(vector31.o)
                0x9fc015e0                __vector_dispatch_31
                0x00000001                ASSERT (((_vector_spacing == 0x0) || (SIZEOF (.vector_31) <= (_vector_spacing << 0x5))), function at exception vector 31 too large)

.vector_32      0x9fc01600        0x8
 *(.vector_32)
 .vector_32     0x9fc01600        0x8 c:/program files (x86)/microchip/xc32/v1.42/bin/bin/../../lib/gcc/pic32mx/4.8.3/../../../../pic32mx/lib\libpic32.a(vector32.o)
                0x9fc01600                __vector_dispatch_32
                0x00000001                ASSERT (((_vector_spacing == 0x0) || (SIZEOF (.vector_32) <= (_vector_spacing << 0x5))), function at exception vector 32 too large)

.vector_33      0x9fc01620        0x8
 *(.vector_33)
 .vector_33     0x9fc01620        0x8 c:/program files (x86)/microchip/xc32/v1.42/bin/bin/../../lib/gcc/pic32mx/4.8.3/../../../../pic32mx/lib\libpic32.a(vector33.o)
                0x9fc01620                __vector_dispatch_33
                0x00000001                ASSERT (((_vector_spacing == 0x0) || (SIZEOF (.vector_33) <= (_vector_spacing << 0x5))), function at exception vector 33 too large)

.vector_34      0x9fc01640        0x8
 *(.vector_34)
 .vector_34     0x9fc01640        0x8 c:/program files (x86)/microchip/xc32/v1.42/bin/bin/../../lib/gcc/pic32mx/4.8.3/../../../../pic32mx/lib\libpic32.a(vector34.o)
                0x9fc01640                __vector_dispatch_34
                0x00000001                ASSERT (((_vector_spacing == 0x0) || (SIZEOF (.vector_34) <= (_vector_spacing << 0x5))), function at exception vector 34 too large)

.vector_35      0x9fc01660        0x8
 *(.vector_35)
 .vector_35     0x9fc01660        0x8 c:/program files (x86)/microchip/xc32/v1.42/bin/bin/../../lib/gcc/pic32mx/4.8.3/../../../../pic32mx/lib\libpic32.a(vector35.o)
                0x9fc01660                __vector_dispatch_35
                0x00000001                ASSERT (((_vector_spacing == 0x0) || (SIZEOF (.vector_35) <= (_vector_spacing << 0x5))), function at exception vector 35 too large)

.vector_36      0x9fc01680        0x8
 *(.vector_36)
 .vector_36     0x9fc01680        0x8 c:/program files (x86)/microchip/xc32/v1.42/bin/bin/../../lib/gcc/pic32mx/4.8.3/../../../../pic32mx/lib\libpic32.a(vector36.o)
                0x9fc01680                __vector_dispatch_36
                0x00000001                ASSERT (((_vector_spacing == 0x0) || (SIZEOF (.vector_36) <= (_vector_spacing << 0x5))), function at exception vector 36 too large)

.vector_37      0x9fc016a0        0x8
 *(.vector_37)
 .vector_37     0x9fc016a0        0x8 c:/program files (x86)/microchip/xc32/v1.42/bin/bin/../../lib/gcc/pic32mx/4.8.3/../../../../pic32mx/lib\libpic32.a(vector37.o)
                0x9fc016a0                __vector_dispatch_37
                0x00000001                ASSERT (((_vector_spacing == 0x0) || (SIZEOF (.vector_37) <= (_vector_spacing << 0x5))), function at exception vector 37 too large)

.vector_38      0x9fc016c0        0x8
 *(.vector_38)
 .vector_38     0x9fc016c0        0x8 c:/program files (x86)/microchip/xc32/v1.42/bin/bin/../../lib/gcc/pic32mx/4.8.3/../../../../pic32mx/lib\libpic32.a(vector38.o)
                0x9fc016c0                __vector_dispatch_38
                0x00000001                ASSERT (((_vector_spacing == 0x0) || (SIZEOF (.vector_38) <= (_vector_spacing << 0x5))), function at exception vector 38 too large)

.vector_39      0x9fc016e0        0x8
 *(.vector_39)
 .vector_39     0x9fc016e0        0x8 c:/program files (x86)/microchip/xc32/v1.42/bin/bin/../../lib/gcc/pic32mx/4.8.3/../../../../pic32mx/lib\libpic32.a(vector39.o)
                0x9fc016e0                __vector_dispatch_39
                0x00000001                ASSERT (((_vector_spacing == 0x0) || (SIZEOF (.vector_39) <= (_vector_spacing << 0x5))), function at exception vector 39 too large)

.vector_40      0x9fc01700        0x8
 *(.vector_40)
 .vector_40     0x9fc01700        0x8 c:/program files (x86)/microchip/xc32/v1.42/bin/bin/../../lib/gcc/pic32mx/4.8.3/../../../../pic32mx/lib\libpic32.a(vector40.o)
                0x9fc01700                __vector_dispatch_40
                0x00000001                ASSERT (((_vector_spacing == 0x0) || (SIZEOF (.vector_40) <= (_vector_spacing << 0x5))), function at exception vector 40 too large)

.vector_41      0x9fc01720        0x8
 *(.vector_41)
 .vector_41     0x9fc01720        0x8 c:/program files (x86)/microchip/xc32/v1.42/bin/bin/../../lib/gcc/pic32mx/4.8.3/../../../../pic32mx/lib\libpic32.a(vector41.o)
                0x9fc01720                __vector_dispatch_41
                0x00000001                ASSERT (((_vector_spacing == 0x0) || (SIZEOF (.vector_41) <= (_vector_spacing << 0x5))), function at exception vector 41 too large)

.vector_42      0x9fc01740        0x8
 *(.vector_42)
 .vector_42     0x9fc01740        0x8 c:/program files (x86)/microchip/xc32/v1.42/bin/bin/../../lib/gcc/pic32mx/4.8.3/../../../../pic32mx/lib\libpic32.a(vector42.o)
                0x9fc01740                __vector_dispatch_42
                0x00000001                ASSERT (((_vector_spacing == 0x0) || (SIZEOF (.vector_42) <= (_vector_spacing << 0x5))), function at exception vector 42 too large)

.vector_43      0x9fc01760        0x8
 *(.vector_43)
 .vector_43     0x9fc01760        0x8 c:/program files (x86)/microchip/xc32/v1.42/bin/bin/../../lib/gcc/pic32mx/4.8.3/../../../../pic32mx/lib\libpic32.a(vector43.o)
                0x9fc01760                __vector_dispatch_43
                0x00000001                ASSERT (((_vector_spacing == 0x0) || (SIZEOF (.vector_43) <= (_vector_spacing << 0x5))), function at exception vector 43 too large)

.vector_44      0x9fc01780        0x8
 *(.vector_44)
 .vector_44     0x9fc01780        0x8 c:/program files (x86)/microchip/xc32/v1.42/bin/bin/../../lib/gcc/pic32mx/4.8.3/../../../../pic32mx/lib\libpic32.a(vector44.o)
                0x9fc01780                __vector_dispatch_44
                0x00000001                ASSERT (((_vector_spacing == 0x0) || (SIZEOF (.vector_44) <= (_vector_spacing << 0x5))), function at exception vector 44 too large)

.vector_45      0x9fc017a0        0x8
 *(.vector_45)
 .vector_45     0x9fc017a0        0x8 c:/program files (x86)/microchip/xc32/v1.42/bin/bin/../../lib/gcc/pic32mx/4.8.3/../../../../pic32mx/lib\libpic32.a(vector45.o)
                0x9fc017a0                __vector_dispatch_45
                0x00000001                ASSERT (((_vector_spacing == 0x0) || (SIZEOF (.vector_45) <= (_vector_spacing << 0x5))), function at exception vector 45 too large)

.vector_46      0x9fc017c0        0x8
 *(.vector_46)
 .vector_46     0x9fc017c0        0x8 c:/program files (x86)/microchip/xc32/v1.42/bin/bin/../../lib/gcc/pic32mx/4.8.3/../../../../pic32mx/lib\libpic32.a(vector46.o)
                0x9fc017c0                __vector_dispatch_46
                0x00000001                ASSERT (((_vector_spacing == 0x0) || (SIZEOF (.vector_46) <= (_vector_spacing << 0x5))), function at exception vector 46 too large)

.vector_47      0x9fc017e0        0x8
 *(.vector_47)
 .vector_47     0x9fc017e0        0x8 c:/program files (x86)/microchip/xc32/v1.42/bin/bin/../../lib/gcc/pic32mx/4.8.3/../../../../pic32mx/lib\libpic32.a(vector47.o)
                0x9fc017e0                __vector_dispatch_47
                0x00000001                ASSERT (((_vector_spacing == 0x0) || (SIZEOF (.vector_47) <= (_vector_spacing << 0x5))), function at exception vector 47 too large)

.vector_48      0x9fc01800        0x8
 *(.vector_48)
 .vector_48     0x9fc01800        0x8 c:/program files (x86)/microchip/xc32/v1.42/bin/bin/../../lib/gcc/pic32mx/4.8.3/../../../../pic32mx/lib\libpic32.a(vector48.o)
                0x9fc01800                __vector_dispatch_48
                0x00000001                ASSERT (((_vector_spacing == 0x0) || (SIZEOF (.vector_48) <= (_vector_spacing << 0x5))), function at exception vector 48 too large)

.vector_49      0x9fc01820        0x8
 *(.vector_49)
 .vector_49     0x9fc01820        0x8 c:/program files (x86)/microchip/xc32/v1.42/bin/bin/../../lib/gcc/pic32mx/4.8.3/../../../../pic32mx/lib\libpic32.a(vector49.o)
                0x9fc01820                __vector_dispatch_49
                0x00000001                ASSERT (((_vector_spacing == 0x0) || (SIZEOF (.vector_49) <= (_vector_spacing << 0x5))), function at exception vector 49 too large)

.vector_50      0x9fc01840        0x8
 *(.vector_50)
 .vector_50     0x9fc01840        0x8 c:/program files (x86)/microchip/xc32/v1.42/bin/bin/../../lib/gcc/pic32mx/4.8.3/../../../../pic32mx/lib\libpic32.a(vector50.o)
                0x9fc01840                __vector_dispatch_50
                0x00000001                ASSERT (((_vector_spacing == 0x0) || (SIZEOF (.vector_50) <= (_vector_spacing << 0x5))), function at exception vector 50 too large)

.vector_51      0x9fc01860        0x8
 *(.vector_51)
 .vector_51     0x9fc01860        0x8 c:/program files (x86)/microchip/xc32/v1.42/bin/bin/../../lib/gcc/pic32mx/4.8.3/../../../../pic32mx/lib\libpic32.a(vector51.o)
                0x9fc01860                __vector_dispatch_51
                0x00000001                ASSERT (((_vector_spacing == 0x0) || (SIZEOF (.vector_51) <= (_vector_spacing << 0x5))), function at exception vector 51 too large)

.vector_52      0x9fc01880        0x0
 *(.vector_52)
                0x00000001                ASSERT (((_vector_spacing == 0x0) || (SIZEOF (.vector_52) <= (_vector_spacing << 0x5))), function at exception vector 52 too large)

.vector_53      0x9fc018a0        0x0
 *(.vector_53)
                0x00000001                ASSERT (((_vector_spacing == 0x0) || (SIZEOF (.vector_53) <= (_vector_spacing << 0x5))), function at exception vector 53 too large)

.vector_54      0x9fc018c0        0x0
 *(.vector_54)
                0x00000001                ASSERT (((_vector_spacing == 0x0) || (SIZEOF (.vector_54) <= (_vector_spacing << 0x5))), function at exception vector 54 too large)

.vector_55      0x9fc018e0        0x0
 *(.vector_55)
                0x00000001                ASSERT (((_vector_spacing == 0x0) || (SIZEOF (.vector_55) <= (_vector_spacing << 0x5))), function at exception vector 55 too large)

.vector_56      0x9fc01900        0x0
 *(.vector_56)
                0x00000001                ASSERT (((_vector_spacing == 0x0) || (SIZEOF (.vector_56) <= (_vector_spacing << 0x5))), function at exception vector 56 too large)

.vector_57      0x9fc01920        0x0
 *(.vector_57)
                0x00000001                ASSERT (((_vector_spacing == 0x0) || (SIZEOF (.vector_57) <= (_vector_spacing << 0x5))), function at exception vector 57 too large)

.vector_58      0x9fc01940        0x0
 *(.vector_58)
                0x00000001                ASSERT (((_vector_spacing == 0x0) || (SIZEOF (.vector_58) <= (_vector_spacing << 0x5))), function at exception vector 58 too large)

.vector_59      0x9fc01960        0x0
 *(.vector_59)
                0x00000001                ASSERT (((_vector_spacing == 0x0) || (SIZEOF (.vector_59) <= (_vector_spacing << 0x5))), function at exception vector 59 too large)

.vector_60      0x9fc01980        0x0
 *(.vector_60)
                0x00000001                ASSERT (((_vector_spacing == 0x0) || (SIZEOF (.vector_60) <= (_vector_spacing << 0x5))), function at exception vector 60 too large)

.vector_61      0x9fc019a0        0x0
 *(.vector_61)
                0x00000001                ASSERT (((_vector_spacing == 0x0) || (SIZEOF (.vector_61) <= (_vector_spacing << 0x5))), function at exception vector 61 too large)

.vector_62      0x9fc019c0        0x0
 *(.vector_62)
                0x00000001                ASSERT (((_vector_spacing == 0x0) || (SIZEOF (.vector_62) <= (_vector_spacing << 0x5))), function at exception vector 62 too large)

.vector_63      0x9fc019e0        0x0
 *(.vector_63)
                0x00000001                ASSERT (((_vector_spacing == 0x0) || (SIZEOF (.vector_63) <= (_vector_spacing << 0x5))), function at exception vector 63 too large)

.startup
 *(.startup)

.text           0x9d000000        0x0
 *(.stub .gnu.linkonce.t.*)
 *(.text.*personality*)
 *(.mips16.fn.*)
 *(.mips16.call.*)
 *(.gnu.warning)
                0x9d000000                . = ALIGN (0x4)

.init           0x9d000000        0x0
 *crti.o(.init)
 *crtbegin.o(.init)
 *(EXCLUDE_FILE(*crtn.o *crtend?.o *crtend.o) .init)
 *crtend.o(.init)
 *crtn.o(.init)
                0x9d000000                . = ALIGN (0x4)

.fini           0x9d000000        0x0
 *(.fini)
                0x9d000000                . = ALIGN (0x4)

.preinit_array  0x9d000000        0x0
                0x9d000000                PROVIDE (__preinit_array_start, .)
 *(.preinit_array)
                0x9d000000                PROVIDE (__preinit_array_end, .)
                0x9d000000                . = ALIGN (0x4)

.init_array     0x9d000000        0x0
                0x9d000000                PROVIDE (__init_array_start, .)
 *(SORT(.init_array.*))
 *(.init_array)
                0x9d000000                PROVIDE (__init_array_end, .)
                0x9d000000                . = ALIGN (0x4)

.fini_array     0x9d000000        0x0
                0x9d000000                PROVIDE (__fini_array_start, .)
 *(SORT(.fini_array.*))
 *(.fini_array)
                0x9d000000                PROVIDE (__fini_array_end, .)
                0x9d000000                . = ALIGN (0x4)

.ctors          0x9d000000        0x0
 *crtbegin.o(.ctors)
 *crtbegin?.o(.ctors)
 *(EXCLUDE_FILE(*crtend?.o *crtend.o) .ctors)
 *(SORT(.ctors.*))
 *(.ctors)
                0x9d000000                . = ALIGN (0x4)

.dtors          0x9d000000        0x0
 *crtbegin.o(.dtors)
 *crtbegin?.o(.dtors)
 *(EXCLUDE_FILE(*crtend?.o *crtend.o) .dtors)
 *(SORT(.dtors.*))
 *(.dtors)
                0x9d000000                . = ALIGN (0x4)

.rodata         0x9d000000        0x0
 *(.gnu.linkonce.r.*)
 *(.rodata1)
                0x9d000000                . = ALIGN (0x4)

.sdata2         0x9fc00490        0x0
 *(.sdata2 .sdata2.* .gnu.linkonce.s2.*)
                0x9fc00490                . = ALIGN (0x4)

.sbss2          0x9fc00490        0x0
 *(.sbss2 .sbss2.* .gnu.linkonce.sb2.*)
                0x9fc00490                . = ALIGN (0x4)

.eh_frame_hdr
 *(.eh_frame_hdr)
                0x9fc00490                . = ALIGN (0x4)

.eh_frame
 *(.eh_frame)
                0x9fc00490                . = ALIGN (0x4)

.gcc_except_table
 *(.gcc_except_table .gcc_except_table.*)
                0x9fc00490                . = ALIGN (0x4)

.dbg_data       0xa0000000        0x0
                0xa0000000                . = (. + DEFINED (_DEBUGGER)?0x200:0x0)

.jcr            0xa0000000        0x0
 *(.jcr)
                0xa0000000                . = ALIGN (0x4)

.eh_frame
 *(.eh_frame)
                0xa0000000                . = ALIGN (0x4)

.gcc_except_table
 *(.gcc_except_table .gcc_except_table.*)
                0xa0000000                . = ALIGN (0x4)

.persist        0xa0000000        0x0
                0xa0000000                _persist_begin = .
 *(.persist .persist.*)
 *(.pbss .pbss.*)
                0xa0000000                . = ALIGN (0x4)
                0xa0000000                _persist_end = .

.data           0xa0000000        0x0
 *(.gnu.linkonce.d.*)
 *(.data1)
                0xa0000000                . = ALIGN (0x4)
                0xa0000000                . = .
                0xa0007ff0                _gp = (ALIGN (0x10) + 0x7ff0)

.got            0xa0000000        0x0
 *(.got.plt)
 *(.got)
                0xa0000000                . = ALIGN (0x4)

.sdata          0xa0000000       0x24
                0xa0000000                _sdata_begin = .
 *(.sdata .sdata.* .gnu.linkonce.s.*)
 .sdata         0xa0000000        0x4 build/milestone1/production/_ext/1360937237/communication.o
                0xa0000000                SeqNum
 .sdata         0xa0000004        0x4 build/milestone1/production/_ext/1475386849/port.o
                0xa0000004                uxInterruptNesting
 .sdata         0xa0000008       0x18 build/milestone1/production/_ext/1360937237/motor.o
                0xa0000008                errorDiv
                0xa000000c                PIDDiv
                0xa0000010                PIDOffsetDiv
                0xa0000014                dt
                0xa0000018                Td
                0xa000001c                Ti
 .sdata         0xa0000020        0x4 c:/program files (x86)/microchip/xc32/v1.42/bin/bin/../../lib/gcc/pic32mx/4.8.3/../../../../pic32mx/lib\libpic32.a(xc32_uart.o)
                0xa0000020                __XC_UART
                0xa0000024                . = ALIGN (0x4)
                0xa0000024                _sdata_end = .

.lit8
 *(.lit8)

.lit4
 *(.lit4)
                0xa0000024                . = ALIGN (0x4)
                0xa0000024                _data_end = .
                0xa0000024                _bss_begin = .

.sbss           0xa0000024       0xcc
                0xa0000024                _sbss_begin = .
 *(.dynsbss)
 *(.sbss .sbss.* .gnu.linkonce.sb.*)
 .sbss          0xa0000024        0x4 build/milestone1/production/_ext/1864120335/drv_tmr_static.o
 .sbss          0xa0000028        0xc build/milestone1/production/_ext/1555642536/system_exceptions.o
 .sbss          0xa0000034        0x4 build/milestone1/production/_ext/1360937237/app.o
 .sbss          0xa0000038        0x4 build/milestone1/production/_ext/1360937237/navigation.o
 .sbss          0xa000003c        0x4 build/milestone1/production/_ext/1360937237/mapping.o
 .sbss          0xa0000040       0x18 build/milestone1/production/_ext/1360937237/communication.o
                0xa0000040                receiveFromWifiBufferIdx
                0xa0000044                bufferToWrite2Idx
                0xa0000048                NumDroppedMessages
                0xa000004c                NumBadChecksums
 .sbss          0xa0000058        0x8 build/milestone1/production/_ext/1360937237/ms2test.o
                0xa0000058                testCount
                0xa000005c                speedTotal
 .sbss          0xa0000060        0x8 build/milestone1/production/_ext/1366647692/heap_1.o
 .sbss          0xa0000068        0x4 build/milestone1/production/_ext/1475386849/port.o
                0xa0000068                uxSavedTaskStackPointer
 .sbss          0xa000006c       0x3c build/milestone1/production/_ext/1241959881/tasks.o
                0xa00000a4                pxCurrentTCB
 .sbss          0xa00000a8       0x24 build/milestone1/production/_ext/1360937237/motor.o
                0xa00000a8                PID2_Out
                0xa00000ac                PID2_I
                0xa00000b0                PID2_PreviousError
                0xa00000b4                PID1_Out
                0xa00000b8                PID1_I
                0xa00000bc                PID1_PreviousError
                0xa00000c0                Kd
                0xa00000c4                Ki
                0xa00000c8                Kp
 *(.scommon)
 .scommon       0xa00000cc        0x4 build/milestone1/production/_ext/192191419/drv_usart_static.o
                0xa00000cc                gDrvUSART0Obj
 .scommon       0xa00000d0        0x8 build/milestone1/production/_ext/1360937237/app.o
                0xa00000d0                appData
                0xa00000d4                app1Iter
 .scommon       0xa00000d8        0x4 build/milestone1/production/_ext/1360937237/navigation.o
                0xa00000d8                navigationData
 .scommon       0xa00000dc        0x4 build/milestone1/production/_ext/1360937237/mapping.o
                0xa00000dc                mappingData
 .scommon       0xa00000e0        0x4 build/milestone1/production/_ext/1360937237/communication.o
                0xa00000e0                communicationData
 .scommon       0xa00000e4        0x8 build/milestone1/production/_ext/2019779704/sys_devcon.o
                0xa00000e4                sysDevconObj
 .scommon       0xa00000ec        0x4 build/milestone1/production/_ext/1360937237/debug.o
                0xa00000ec                global_data
                0xa00000f0                _sbss_end = .
                0xa00000f0                . = ALIGN (0x4)

.bss            0xa00000f0      0x1cc
 *(.dynbss)
 *(COMMON)
 COMMON         0xa00000f0       0x18 build/milestone1/production/_ext/1555642536/system_init.o
                0xa00000f0                sysObj
 COMMON         0xa0000108      0x1b4 build/milestone1/production/_ext/1360937237/communication.o
                0xa0000108                bufferToWrite2
                0xa00001e4                receiveFromWifiBuffer
                0xa00002bc                . = ALIGN ((. != 0x0)?0x4:0x1)
                0xa00002bc                . = ALIGN (0x4)
                0xa00002bc                _end = .
                0xa00002bc                _bss_end = .
                0x00020000                _bmxdudba_address = 0x20000
                0x00020000                _bmxdupba_address = 0x20000

/DISCARD/
 *(.pdr)
 *(.rel.dyn)
 *(.note.GNU-stack)
 *(.note.GNU-stack)
 *(.gnu_debuglink)
 *(.gnu.lto_*)
 *(.discard)

.gptab.sdata
 *(.gptab.data)
 *(.gptab.sdata)

.gptab.sbss
 *(.gptab.bss)
 *(.gptab.sbss)

.mdebug.abi32   0xa00002bc        0x0
 *(.mdebug.abi32)
 .mdebug.abi32  0xa00002bc        0x0 build/milestone1/production/_ext/1864120335/drv_tmr_static.o
 .mdebug.abi32  0xa00002bc        0x0 build/milestone1/production/_ext/1864120335/drv_tmr_mapping.o
 .mdebug.abi32  0xa00002bc        0x0 build/milestone1/production/_ext/192191419/drv_usart_mapping.o
 .mdebug.abi32  0xa00002bc        0x0 build/milestone1/production/_ext/192191419/drv_usart_static.o
 .mdebug.abi32  0xa00002bc        0x0 build/milestone1/production/_ext/192191419/drv_usart_static_byte_model.o
 .mdebug.abi32  0xa00002bc        0x0 build/milestone1/production/_ext/383799649/sys_clk_static.o
 .mdebug.abi32  0xa00002bc        0x0 build/milestone1/production/_ext/956857457/sys_ports_static.o
 .mdebug.abi32  0xa00002bc        0x0 build/milestone1/production/_ext/1555642536/system_init.o
 .mdebug.abi32  0xa00002bc        0x0 build/milestone1/production/_ext/1555642536/system_interrupt.o
 .mdebug.abi32  0xa00002bc        0x0 build/milestone1/production/_ext/1555642536/system_exceptions.o
 .mdebug.abi32  0xa00002bc        0x0 build/milestone1/production/_ext/1555642536/system_tasks.o
 .mdebug.abi32  0xa00002bc        0x0 build/milestone1/production/_ext/1555642536/rtos_hooks.o
 .mdebug.abi32  0xa00002bc        0x0 build/milestone1/production/_ext/1360937237/app.o
 .mdebug.abi32  0xa00002bc        0x0 build/milestone1/production/_ext/1360937237/main.o
 .mdebug.abi32  0xa00002bc        0x0 build/milestone1/production/_ext/1360937237/navigation.o
 .mdebug.abi32  0xa00002bc        0x0 build/milestone1/production/_ext/1360937237/mapping.o
 .mdebug.abi32  0xa00002bc        0x0 build/milestone1/production/_ext/1360937237/communication.o
 .mdebug.abi32  0xa00002bc        0x0 build/milestone1/production/_ext/1360937237/ms2test.o
 .mdebug.abi32  0xa00002bc        0x0 build/milestone1/production/_ext/1423261102/osal_freertos.o
 .mdebug.abi32  0xa00002bc        0x0 build/milestone1/production/_ext/2019779704/sys_devcon.o
 .mdebug.abi32  0xa00002bc        0x0 build/milestone1/production/_ext/2019779704/sys_devcon_pic32mx.o
 .mdebug.abi32  0xa00002bc        0x0 build/milestone1/production/_ext/1620769490/sys_int_pic32.o
 .mdebug.abi32  0xa00002bc        0x0 build/milestone1/production/_ext/1366647692/heap_1.o
 .mdebug.abi32  0xa00002bc        0x0 build/milestone1/production/_ext/1475386849/port.o
 .mdebug.abi32  0xa00002bc        0x0 build/milestone1/production/_ext/1241959881/croutine.o
 .mdebug.abi32  0xa00002bc        0x0 build/milestone1/production/_ext/1241959881/list.o
 .mdebug.abi32  0xa00002bc        0x0 build/milestone1/production/_ext/1241959881/queue.o
 .mdebug.abi32  0xa00002bc        0x0 build/milestone1/production/_ext/1241959881/tasks.o
 .mdebug.abi32  0xa00002bc        0x0 build/milestone1/production/_ext/1241959881/timers.o
 .mdebug.abi32  0xa00002bc        0x0 build/milestone1/production/_ext/1241959881/event_groups.o
 .mdebug.abi32  0xa00002bc        0x0 build/milestone1/production/_ext/1360937237/debug.o
 .mdebug.abi32  0xa00002bc        0x0 build/milestone1/production/_ext/1360937237/motor.o
 .mdebug.abi32  0xa00002bc        0x0 build/milestone1/production/_ext/1360937237/myjson.o
 .mdebug.abi32  0xa00002bc        0x0 c:/program files (x86)/microchip/xc32/v1.42/bin/bin/../../lib/gcc/pic32mx/4.8.3/../../../../pic32mx/lib\libpic32.a(default-bootstrap-exception-handler.o)
 .mdebug.abi32  0xa00002bc        0x0 c:/program files (x86)/microchip/xc32/v1.42/bin/bin/../../lib/gcc/pic32mx/4.8.3/../../../../pic32mx/lib\libpic32.a(default-on-reset.o)
 .mdebug.abi32  0xa00002bc        0x0 c:/program files (x86)/microchip/xc32/v1.42/bin/bin/../../lib/gcc/pic32mx/4.8.3/../../../../pic32mx/lib\libpic32.a(default-on-bootstrap.o)
 .mdebug.abi32  0xa00002bc        0x0 c:/program files (x86)/microchip/xc32/v1.42/bin/bin/../../lib/gcc/pic32mx/4.8.3/../../../../pic32mx/lib\libpic32.a(defaultinterrupt.o)
 .mdebug.abi32  0xa00002bc        0x0 c:/program files (x86)/microchip/xc32/v1.42/bin/bin/../../lib/gcc/pic32mx/4.8.3/../../../../pic32mx/lib\libc.a(atoi.o)
 .mdebug.abi32  0xa00002bc        0x0 c:/program files (x86)/microchip/xc32/v1.42/bin/bin/../../lib/gcc/pic32mx/4.8.3/../../../../pic32mx/lib\libc.a(ctype.o)
 .mdebug.abi32  0xa00002bc        0x0 c:/program files (x86)/microchip/xc32/v1.42/bin/bin/../../lib/gcc/pic32mx/4.8.3/../../../../pic32mx/lib\libc.a(strcat.o)
 .mdebug.abi32  0xa00002bc        0x0 c:/program files (x86)/microchip/xc32/v1.42/bin/bin/../../lib/gcc/pic32mx/4.8.3/../../../../pic32mx/lib\libc.a(sprintf_cdnopuxX.eo)
 .mdebug.abi32  0xa00002bc        0x0 c:/program files (x86)/microchip/xc32/v1.42/bin/bin/../../lib/gcc/pic32mx/4.8.3/../../../../pic32mx/lib\libc.a(doprnt_cdnopuxX.eo)
 .mdebug.abi32  0xa00002bc        0x0 c:/program files (x86)/microchip/xc32/v1.42/bin/bin/../../lib/gcc/pic32mx/4.8.3/../../../../pic32mx/lib\libc.a(_fputc_simple.o)
 .mdebug.abi32  0xa00002bc        0x0 c:/program files (x86)/microchip/xc32/v1.42/bin/bin/../../lib/gcc/pic32mx/4.8.3/../../../../pic32mx/lib\libc.a(_iob.o)
 .mdebug.abi32  0xa00002bc        0x0 c:/program files (x86)/microchip/xc32/v1.42/bin/bin/../../lib/gcc/pic32mx/4.8.3/../../../../pic32mx/lib\libc.a(_flsbuf_simple.o)
 .mdebug.abi32  0xa00002bc        0x0 c:/program files (x86)/microchip/xc32/v1.42/bin/bin/../../lib/gcc/pic32mx/4.8.3/../../../../pic32mx/lib\libpic32.a(write.o)
 .mdebug.abi32  0xa00002bc        0x0 c:/program files (x86)/microchip/xc32/v1.42/bin/bin/../../lib/gcc/pic32mx/4.8.3/../../../../pic32mx/lib\libpic32.a(_mon_putc.o)
 .mdebug.abi32  0xa00002bc        0x0 c:/program files (x86)/microchip/xc32/v1.42/bin/bin/../../lib/gcc/pic32mx/4.8.3/../../../../pic32mx/lib\libpic32.a(xc32_uart.o)
 .mdebug.abi32  0xa00002bc        0x0 c:/program files (x86)/microchip/xc32/v1.42/bin/bin/../../lib/gcc/pic32mx/4.8.3\libgcc.a(_udivdi3.o)
 .mdebug.abi32  0xa00002bc        0x0 c:/program files (x86)/microchip/xc32/v1.42/bin/bin/../../lib/gcc/pic32mx/4.8.3\libgcc.a(_umoddi3.o)

.mdebug.abiN32
 *(.mdebug.abiN32)

.mdebug.abi64
 *(.mdebug.abi64)

.mdebug.abiO64
 *(.mdebug.abiO64)

.mdebug.eabi32
 *(.mdebug.eabi32)

.mdebug.eabi64
 *(.mdebug.eabi64)

.gcc_compiled_long32
 *(.gcc_compiled_long32)

.gcc_compiled_long64
 *(.gcc_compiled_long64)

.stab
 *(.stab)

.stabstr
 *(.stabstr)

.stab.excl
 *(.stab.excl)

.stab.exclstr
 *(.stab.exclstr)

.stab.index
 *(.stab.index)

.stab.indexstr
 *(.stab.indexstr)

.comment        0x00000000       0xbb
 *(.comment)
 .comment       0x00000000       0x3c build/milestone1/production/_ext/1864120335/drv_tmr_static.o
                                 0x3d (size before relaxing)
 .comment       0x00000000       0x3d build/milestone1/production/_ext/1864120335/drv_tmr_mapping.o
 .comment       0x00000000       0x3d build/milestone1/production/_ext/192191419/drv_usart_mapping.o
 .comment       0x00000000       0x3d build/milestone1/production/_ext/192191419/drv_usart_static.o
 .comment       0x00000000       0x3d build/milestone1/production/_ext/192191419/drv_usart_static_byte_model.o
 .comment       0x00000000       0x3d build/milestone1/production/_ext/383799649/sys_clk_static.o
 .comment       0x00000000       0x3d build/milestone1/production/_ext/956857457/sys_ports_static.o
 .comment       0x00000000       0x3d build/milestone1/production/_ext/1555642536/system_init.o
 .comment       0x00000000       0x3d build/milestone1/production/_ext/1555642536/system_interrupt.o
 .comment       0x00000000       0x3d build/milestone1/production/_ext/1555642536/system_exceptions.o
 .comment       0x00000000       0x3d build/milestone1/production/_ext/1555642536/system_tasks.o
 .comment       0x00000000       0x3d build/milestone1/production/_ext/1555642536/rtos_hooks.o
 .comment       0x00000000       0x3d build/milestone1/production/_ext/1360937237/app.o
 .comment       0x00000000       0x3d build/milestone1/production/_ext/1360937237/main.o
 .comment       0x00000000       0x3d build/milestone1/production/_ext/1360937237/navigation.o
 .comment       0x00000000       0x3d build/milestone1/production/_ext/1360937237/mapping.o
 .comment       0x00000000       0x3d build/milestone1/production/_ext/1360937237/communication.o
 .comment       0x00000000       0x3d build/milestone1/production/_ext/1360937237/ms2test.o
 .comment       0x00000000       0x3d build/milestone1/production/_ext/1423261102/osal_freertos.o
 .comment       0x00000000       0x3d build/milestone1/production/_ext/2019779704/sys_devcon.o
 .comment       0x00000000       0x3d build/milestone1/production/_ext/2019779704/sys_devcon_pic32mx.o
 .comment       0x00000000       0x3d build/milestone1/production/_ext/1620769490/sys_int_pic32.o
 .comment       0x00000000       0x3d build/milestone1/production/_ext/1366647692/heap_1.o
 .comment       0x00000000       0x3d build/milestone1/production/_ext/1475386849/port.o
 .comment       0x00000000       0x3d build/milestone1/production/_ext/1241959881/croutine.o
 .comment       0x00000000       0x3d build/milestone1/production/_ext/1241959881/list.o
 .comment       0x00000000       0x3d build/milestone1/production/_ext/1241959881/queue.o
 .comment       0x00000000       0x3d build/milestone1/production/_ext/1241959881/tasks.o
 .comment       0x00000000       0x3d build/milestone1/production/_ext/1241959881/timers.o
 .comment       0x00000000       0x3d build/milestone1/production/_ext/1241959881/event_groups.o
 .comment       0x00000000       0x3d build/milestone1/production/_ext/1360937237/debug.o
 .comment       0x00000000       0x3d build/milestone1/production/_ext/1360937237/motor.o
 .comment       0x00000000       0x3d build/milestone1/production/_ext/1360937237/myjson.o
 .comment       0x0000003c       0x18 c:/program files (x86)/microchip/xc32/v1.42/bin/bin/../../lib/gcc/pic32mx/4.8.3/../../../../pic32mx/lib\libpic32.a(memset.o)
                                 0x19 (size before relaxing)
 .comment       0x00000054       0x19 c:/program files (x86)/microchip/xc32/v1.42/bin/bin/../../lib/gcc/pic32mx/4.8.3/../../../../pic32mx/lib\libpic32.a(strlen.o)
                                 0x1a (size before relaxing)
 .comment       0x00000000       0x3d c:/program files (x86)/microchip/xc32/v1.42/bin/bin/../../lib/gcc/pic32mx/4.8.3/../../../../pic32mx/lib\libpic32.a(default-bootstrap-exception-handler.o)
 .comment       0x00000000       0x3d c:/program files (x86)/microchip/xc32/v1.42/bin/bin/../../lib/gcc/pic32mx/4.8.3/../../../../pic32mx/lib\libpic32.a(default-on-reset.o)
 .comment       0x00000000       0x3d c:/program files (x86)/microchip/xc32/v1.42/bin/bin/../../lib/gcc/pic32mx/4.8.3/../../../../pic32mx/lib\libpic32.a(default-on-bootstrap.o)
 .comment       0x00000000       0x3d c:/program files (x86)/microchip/xc32/v1.42/bin/bin/../../lib/gcc/pic32mx/4.8.3/../../../../pic32mx/lib\libpic32.a(defaultinterrupt.o)
 .comment       0x00000000       0x3d c:/program files (x86)/microchip/xc32/v1.42/bin/bin/../../lib/gcc/pic32mx/4.8.3/../../../../pic32mx/lib\libc.a(atoi.o)
 .comment       0x0000006d       0x4e c:/program files (x86)/microchip/xc32/v1.42/bin/bin/../../lib/gcc/pic32mx/4.8.3/../../../../pic32mx/lib\libc.a(ctype.o)
                                 0x8b (size before relaxing)
 .comment       0x00000000       0x3d c:/program files (x86)/microchip/xc32/v1.42/bin/bin/../../lib/gcc/pic32mx/4.8.3/../../../../pic32mx/lib\libc.a(strcat.o)
 .comment       0x00000000       0x3d c:/program files (x86)/microchip/xc32/v1.42/bin/bin/../../lib/gcc/pic32mx/4.8.3/../../../../pic32mx/lib\libc.a(sprintf_cdnopuxX.eo)
 .comment       0x00000000       0x3d c:/program files (x86)/microchip/xc32/v1.42/bin/bin/../../lib/gcc/pic32mx/4.8.3/../../../../pic32mx/lib\libc.a(doprnt_cdnopuxX.eo)
 .comment       0x00000000       0x3d c:/program files (x86)/microchip/xc32/v1.42/bin/bin/../../lib/gcc/pic32mx/4.8.3/../../../../pic32mx/lib\libc.a(_fputc_simple.o)
 .comment       0x00000000       0x3d c:/program files (x86)/microchip/xc32/v1.42/bin/bin/../../lib/gcc/pic32mx/4.8.3/../../../../pic32mx/lib\libc.a(_iob.o)
 .comment       0x00000000       0x3d c:/program files (x86)/microchip/xc32/v1.42/bin/bin/../../lib/gcc/pic32mx/4.8.3/../../../../pic32mx/lib\libc.a(_flsbuf_simple.o)
 .comment       0x00000000       0x3d c:/program files (x86)/microchip/xc32/v1.42/bin/bin/../../lib/gcc/pic32mx/4.8.3/../../../../pic32mx/lib\libpic32.a(write.o)
 .comment       0x00000000       0x3d c:/program files (x86)/microchip/xc32/v1.42/bin/bin/../../lib/gcc/pic32mx/4.8.3/../../../../pic32mx/lib\libpic32.a(_mon_putc.o)
 .comment       0x00000000       0x3d c:/program files (x86)/microchip/xc32/v1.42/bin/bin/../../lib/gcc/pic32mx/4.8.3/../../../../pic32mx/lib\libpic32.a(xc32_uart.o)
 .comment       0x00000000       0x3d c:/program files (x86)/microchip/xc32/v1.42/bin/bin/../../lib/gcc/pic32mx/4.8.3\libgcc.a(_udivdi3.o)
 .comment       0x00000000       0x3d c:/program files (x86)/microchip/xc32/v1.42/bin/bin/../../lib/gcc/pic32mx/4.8.3\libgcc.a(_umoddi3.o)

.debug
 *(.debug)

.line
 *(.line)

.debug_srcinfo
 *(.debug_srcinfo)

.debug_sfnames
 *(.debug_sfnames)

.debug_aranges  0x00000000     0x10a0
 *(.debug_aranges)
 .debug_aranges
                0x00000000      0x1d8 build/milestone1/production/_ext/1864120335/drv_tmr_static.o
 .debug_aranges
                0x000001d8       0xc8 build/milestone1/production/_ext/1864120335/drv_tmr_mapping.o
 .debug_aranges
                0x000002a0       0xa8 build/milestone1/production/_ext/192191419/drv_usart_mapping.o
 .debug_aranges
                0x00000348       0x78 build/milestone1/production/_ext/192191419/drv_usart_static.o
 .debug_aranges
                0x000003c0       0x48 build/milestone1/production/_ext/192191419/drv_usart_static_byte_model.o
 .debug_aranges
                0x00000408       0x50 build/milestone1/production/_ext/383799649/sys_clk_static.o
 .debug_aranges
                0x00000458      0x108 build/milestone1/production/_ext/956857457/sys_ports_static.o
 .debug_aranges
                0x00000560       0x20 build/milestone1/production/_ext/1555642536/system_init.o
 .debug_aranges
                0x00000580       0x40 build/milestone1/production/_ext/1555642536/system_interrupt.o
 .debug_aranges
                0x000005c0       0x20 build/milestone1/production/_ext/1555642536/system_exceptions.o
 .debug_aranges
                0x000005e0       0x48 build/milestone1/production/_ext/1555642536/system_tasks.o
 .debug_aranges
                0x00000628       0x68 build/milestone1/production/_ext/1555642536/system_interrupt_a.o
 .debug_aranges
                0x00000690       0x28 build/milestone1/production/_ext/1555642536/rtos_hooks.o
 .debug_aranges
                0x000006b8       0x30 build/milestone1/production/_ext/1360937237/app.o
 .debug_aranges
                0x000006e8       0x20 build/milestone1/production/_ext/1360937237/main.o
 .debug_aranges
                0x00000708       0x40 build/milestone1/production/_ext/1360937237/navigation.o
 .debug_aranges
                0x00000748       0x40 build/milestone1/production/_ext/1360937237/mapping.o
 .debug_aranges
                0x00000788       0xb0 build/milestone1/production/_ext/1360937237/communication.o
 .debug_aranges
                0x00000838       0x70 build/milestone1/production/_ext/1360937237/ms2test.o
 .debug_aranges
                0x000008a8       0x88 build/milestone1/production/_ext/1423261102/osal_freertos.o
 .debug_aranges
                0x00000930       0x78 build/milestone1/production/_ext/2019779704/sys_devcon.o
 .debug_aranges
                0x000009a8       0x20 build/milestone1/production/_ext/2019779704/sys_devcon_pic32mx.o
 .debug_aranges
                0x000009c8       0x48 build/milestone1/production/_ext/1620769490/sys_int_pic32.o
 .debug_aranges
                0x00000a10       0x38 build/milestone1/production/_ext/1366647692/heap_1.o
 .debug_aranges
                0x00000a48       0x58 build/milestone1/production/_ext/1475386849/port.o
 .debug_aranges
                0x00000aa0       0x20 build/milestone1/production/_ext/1475386849/port_asm.o
 .debug_aranges
                0x00000ac0       0x18 build/milestone1/production/_ext/1241959881/croutine.o
 .debug_aranges
                0x00000ad8       0x40 build/milestone1/production/_ext/1241959881/list.o
 .debug_aranges
                0x00000b18       0xb0 build/milestone1/production/_ext/1241959881/queue.o
 .debug_aranges
                0x00000bc8      0x178 build/milestone1/production/_ext/1241959881/tasks.o
 .debug_aranges
                0x00000d40       0x18 build/milestone1/production/_ext/1241959881/timers.o
 .debug_aranges
                0x00000d58       0x60 build/milestone1/production/_ext/1241959881/event_groups.o
 .debug_aranges
                0x00000db8       0x48 build/milestone1/production/_ext/1360937237/debug.o
 .debug_aranges
                0x00000e00       0x50 build/milestone1/production/_ext/1360937237/motor.o
 .debug_aranges
                0x00000e50       0x90 build/milestone1/production/_ext/1360937237/myjson.o
 .debug_aranges
                0x00000ee0       0x20 c:/program files (x86)/microchip/xc32/v1.42/bin/bin/../../lib/gcc/pic32mx/4.8.3/../../../../pic32mx/lib\libpic32.a(default-bootstrap-exception-handler.o)
 .debug_aranges
                0x00000f00       0x20 c:/program files (x86)/microchip/xc32/v1.42/bin/bin/../../lib/gcc/pic32mx/4.8.3/../../../../pic32mx/lib\libpic32.a(default-on-reset.o)
 .debug_aranges
                0x00000f20       0x20 c:/program files (x86)/microchip/xc32/v1.42/bin/bin/../../lib/gcc/pic32mx/4.8.3/../../../../pic32mx/lib\libpic32.a(default-on-bootstrap.o)
 .debug_aranges
                0x00000f40       0x20 c:/program files (x86)/microchip/xc32/v1.42/bin/bin/../../lib/gcc/pic32mx/4.8.3/../../../../pic32mx/lib\libpic32.a(defaultinterrupt.o)
 .debug_aranges
                0x00000f60       0x20 c:/program files (x86)/microchip/xc32/v1.42/bin/bin/../../lib/gcc/pic32mx/4.8.3/../../../../pic32mx/lib\libc.a(atoi.o)
 .debug_aranges
                0x00000f80       0x20 c:/program files (x86)/microchip/xc32/v1.42/bin/bin/../../lib/gcc/pic32mx/4.8.3/../../../../pic32mx/lib\libc.a(strcat.o)
 .debug_aranges
                0x00000fa0       0x20 c:/program files (x86)/microchip/xc32/v1.42/bin/bin/../../lib/gcc/pic32mx/4.8.3/../../../../pic32mx/lib\libc.a(sprintf_cdnopuxX.eo)
 .debug_aranges
                0x00000fc0       0x20 c:/program files (x86)/microchip/xc32/v1.42/bin/bin/../../lib/gcc/pic32mx/4.8.3/../../../../pic32mx/lib\libc.a(doprnt_cdnopuxX.eo)
 .debug_aranges
                0x00000fe0       0x20 c:/program files (x86)/microchip/xc32/v1.42/bin/bin/../../lib/gcc/pic32mx/4.8.3/../../../../pic32mx/lib\libc.a(_fputc_simple.o)
 .debug_aranges
                0x00001000       0x20 c:/program files (x86)/microchip/xc32/v1.42/bin/bin/../../lib/gcc/pic32mx/4.8.3/../../../../pic32mx/lib\libc.a(_flsbuf_simple.o)
 .debug_aranges
                0x00001020       0x20 c:/program files (x86)/microchip/xc32/v1.42/bin/bin/../../lib/gcc/pic32mx/4.8.3/../../../../pic32mx/lib\libpic32.a(write.o)
 .debug_aranges
                0x00001040       0x20 c:/program files (x86)/microchip/xc32/v1.42/bin/bin/../../lib/gcc/pic32mx/4.8.3/../../../../pic32mx/lib\libpic32.a(_mon_putc.o)
 .debug_aranges
                0x00001060       0x20 c:/program files (x86)/microchip/xc32/v1.42/bin/bin/../../lib/gcc/pic32mx/4.8.3\libgcc.a(_udivdi3.o)
 .debug_aranges
                0x00001080       0x20 c:/program files (x86)/microchip/xc32/v1.42/bin/bin/../../lib/gcc/pic32mx/4.8.3\libgcc.a(_umoddi3.o)

.debug_pubnames
 *(.debug_pubnames)

.debug_info     0x00000000    0x55d23
 *(.debug_info .gnu.linkonce.wi.*)
 .debug_info    0x00000000     0x554b build/milestone1/production/_ext/1864120335/drv_tmr_static.o
 .debug_info    0x0000554b     0x170f build/milestone1/production/_ext/1864120335/drv_tmr_mapping.o
 .debug_info    0x00006c5a     0x3f7a build/milestone1/production/_ext/192191419/drv_usart_mapping.o
 .debug_info    0x0000abd4     0x6190 build/milestone1/production/_ext/192191419/drv_usart_static.o
 .debug_info    0x00010d64     0x431b build/milestone1/production/_ext/192191419/drv_usart_static_byte_model.o
 .debug_info    0x0001507f     0x3c54 build/milestone1/production/_ext/383799649/sys_clk_static.o
 .debug_info    0x00018cd3     0x3ae8 build/milestone1/production/_ext/956857457/sys_ports_static.o
 .debug_info    0x0001c7bb     0x40c0 build/milestone1/production/_ext/1555642536/system_init.o
 .debug_info    0x0002087b     0x462d build/milestone1/production/_ext/1555642536/system_interrupt.o
 .debug_info    0x00024ea8     0x3225 build/milestone1/production/_ext/1555642536/system_exceptions.o
 .debug_info    0x000280cd     0x3366 build/milestone1/production/_ext/1555642536/system_tasks.o
 .debug_info    0x0002b433       0xaf build/milestone1/production/_ext/1555642536/system_interrupt_a.o
 .debug_info    0x0002b4e2      0x265 build/milestone1/production/_ext/1555642536/rtos_hooks.o
 .debug_info    0x0002b747     0x36ac build/milestone1/production/_ext/1360937237/app.o
 .debug_info    0x0002edf3      0x1ba build/milestone1/production/_ext/1360937237/main.o
 .debug_info    0x0002efad     0x3a06 build/milestone1/production/_ext/1360937237/navigation.o
 .debug_info    0x000329b3     0x3797 build/milestone1/production/_ext/1360937237/mapping.o
 .debug_info    0x0003614a     0x5845 build/milestone1/production/_ext/1360937237/communication.o
 .debug_info    0x0003b98f     0x39be build/milestone1/production/_ext/1360937237/ms2test.o
 .debug_info    0x0003f34d      0xabf build/milestone1/production/_ext/1423261102/osal_freertos.o
 .debug_info    0x0003fe0c     0x117f build/milestone1/production/_ext/2019779704/sys_devcon.o
 .debug_info    0x00040f8b      0xd70 build/milestone1/production/_ext/2019779704/sys_devcon_pic32mx.o
 .debug_info    0x00041cfb     0x15d7 build/milestone1/production/_ext/1620769490/sys_int_pic32.o
 .debug_info    0x000432d2      0x3a6 build/milestone1/production/_ext/1366647692/heap_1.o
 .debug_info    0x00043678     0x11cf build/milestone1/production/_ext/1475386849/port.o
 .debug_info    0x00044847       0xee build/milestone1/production/_ext/1475386849/port_asm.o
 .debug_info    0x00044935      0x1a0 build/milestone1/production/_ext/1241959881/croutine.o
 .debug_info    0x00044ad5      0x49c build/milestone1/production/_ext/1241959881/list.o
 .debug_info    0x00044f71     0x194f build/milestone1/production/_ext/1241959881/queue.o
 .debug_info    0x000468c0     0x293e build/milestone1/production/_ext/1241959881/tasks.o
 .debug_info    0x000491fe      0x19e build/milestone1/production/_ext/1241959881/timers.o
 .debug_info    0x0004939c      0xd73 build/milestone1/production/_ext/1241959881/event_groups.o
 .debug_info    0x0004a10f     0x34e8 build/milestone1/production/_ext/1360937237/debug.o
 .debug_info    0x0004d5f7     0x3561 build/milestone1/production/_ext/1360937237/motor.o
 .debug_info    0x00050b58     0x38d8 build/milestone1/production/_ext/1360937237/myjson.o
 .debug_info    0x00054430       0xf5 c:/program files (x86)/microchip/xc32/v1.42/bin/bin/../../lib/gcc/pic32mx/4.8.3/../../../../pic32mx/lib\libpic32.a(default-bootstrap-exception-handler.o)
 .debug_info    0x00054525       0xcf c:/program files (x86)/microchip/xc32/v1.42/bin/bin/../../lib/gcc/pic32mx/4.8.3/../../../../pic32mx/lib\libpic32.a(default-on-reset.o)
 .debug_info    0x000545f4       0xd7 c:/program files (x86)/microchip/xc32/v1.42/bin/bin/../../lib/gcc/pic32mx/4.8.3/../../../../pic32mx/lib\libpic32.a(default-on-bootstrap.o)
 .debug_info    0x000546cb       0xe9 c:/program files (x86)/microchip/xc32/v1.42/bin/bin/../../lib/gcc/pic32mx/4.8.3/../../../../pic32mx/lib\libpic32.a(defaultinterrupt.o)
 .debug_info    0x000547b4       0xc4 c:/program files (x86)/microchip/xc32/v1.42/bin/bin/../../lib/gcc/pic32mx/4.8.3/../../../../pic32mx/lib\libc.a(atoi.o)
 .debug_info    0x00054878       0xc8 c:/program files (x86)/microchip/xc32/v1.42/bin/bin/../../lib/gcc/pic32mx/4.8.3/../../../../pic32mx/lib\libc.a(strcat.o)
 .debug_info    0x00054940       0xd4 c:/program files (x86)/microchip/xc32/v1.42/bin/bin/../../lib/gcc/pic32mx/4.8.3/../../../../pic32mx/lib\libc.a(sprintf_cdnopuxX.eo)
 .debug_info    0x00054a14       0xd5 c:/program files (x86)/microchip/xc32/v1.42/bin/bin/../../lib/gcc/pic32mx/4.8.3/../../../../pic32mx/lib\libc.a(doprnt_cdnopuxX.eo)
 .debug_info    0x00054ae9       0xc6 c:/program files (x86)/microchip/xc32/v1.42/bin/bin/../../lib/gcc/pic32mx/4.8.3/../../../../pic32mx/lib\libc.a(_fputc_simple.o)
 .debug_info    0x00054baf       0xc9 c:/program files (x86)/microchip/xc32/v1.42/bin/bin/../../lib/gcc/pic32mx/4.8.3/../../../../pic32mx/lib\libc.a(_flsbuf_simple.o)
 .debug_info    0x00054c78       0xc0 c:/program files (x86)/microchip/xc32/v1.42/bin/bin/../../lib/gcc/pic32mx/4.8.3/../../../../pic32mx/lib\libpic32.a(write.o)
 .debug_info    0x00054d38       0xc8 c:/program files (x86)/microchip/xc32/v1.42/bin/bin/../../lib/gcc/pic32mx/4.8.3/../../../../pic32mx/lib\libpic32.a(_mon_putc.o)
 .debug_info    0x00054e00      0x773 c:/program files (x86)/microchip/xc32/v1.42/bin/bin/../../lib/gcc/pic32mx/4.8.3\libgcc.a(_udivdi3.o)
 .debug_info    0x00055573      0x7b0 c:/program files (x86)/microchip/xc32/v1.42/bin/bin/../../lib/gcc/pic32mx/4.8.3\libgcc.a(_umoddi3.o)

.debug_abbrev   0x00000000     0x44b5
 *(.debug_abbrev)
 .debug_abbrev  0x00000000      0x34a build/milestone1/production/_ext/1864120335/drv_tmr_static.o
 .debug_abbrev  0x0000034a      0x268 build/milestone1/production/_ext/1864120335/drv_tmr_mapping.o
 .debug_abbrev  0x000005b2      0x221 build/milestone1/production/_ext/192191419/drv_usart_mapping.o
 .debug_abbrev  0x000007d3      0x393 build/milestone1/production/_ext/192191419/drv_usart_static.o
 .debug_abbrev  0x00000b66      0x24f build/milestone1/production/_ext/192191419/drv_usart_static_byte_model.o
 .debug_abbrev  0x00000db5      0x27b build/milestone1/production/_ext/383799649/sys_clk_static.o
 .debug_abbrev  0x00001030      0x222 build/milestone1/production/_ext/956857457/sys_ports_static.o
 .debug_abbrev  0x00001252      0x2c1 build/milestone1/production/_ext/1555642536/system_init.o
 .debug_abbrev  0x00001513      0x222 build/milestone1/production/_ext/1555642536/system_interrupt.o
 .debug_abbrev  0x00001735       0xa9 build/milestone1/production/_ext/1555642536/system_exceptions.o
 .debug_abbrev  0x000017de      0x13a build/milestone1/production/_ext/1555642536/system_tasks.o
 .debug_abbrev  0x00001918       0x12 build/milestone1/production/_ext/1555642536/system_interrupt_a.o
 .debug_abbrev  0x0000192a       0x97 build/milestone1/production/_ext/1555642536/rtos_hooks.o
 .debug_abbrev  0x000019c1      0x1ba build/milestone1/production/_ext/1360937237/app.o
 .debug_abbrev  0x00001b7b       0x93 build/milestone1/production/_ext/1360937237/main.o
 .debug_abbrev  0x00001c0e      0x1f7 build/milestone1/production/_ext/1360937237/navigation.o
 .debug_abbrev  0x00001e05      0x1ef build/milestone1/production/_ext/1360937237/mapping.o
 .debug_abbrev  0x00001ff4      0x422 build/milestone1/production/_ext/1360937237/communication.o
 .debug_abbrev  0x00002416      0x199 build/milestone1/production/_ext/1360937237/ms2test.o
 .debug_abbrev  0x000025af      0x1fe build/milestone1/production/_ext/1423261102/osal_freertos.o
 .debug_abbrev  0x000027ad      0x26d build/milestone1/production/_ext/2019779704/sys_devcon.o
 .debug_abbrev  0x00002a1a      0x16d build/milestone1/production/_ext/2019779704/sys_devcon_pic32mx.o
 .debug_abbrev  0x00002b87      0x1d0 build/milestone1/production/_ext/1620769490/sys_int_pic32.o
 .debug_abbrev  0x00002d57      0x13f build/milestone1/production/_ext/1366647692/heap_1.o
 .debug_abbrev  0x00002e96      0x2cf build/milestone1/production/_ext/1475386849/port.o
 .debug_abbrev  0x00003165       0x14 build/milestone1/production/_ext/1475386849/port_asm.o
 .debug_abbrev  0x00003179       0x1b build/milestone1/production/_ext/1241959881/croutine.o
 .debug_abbrev  0x00003194       0xf1 build/milestone1/production/_ext/1241959881/list.o
 .debug_abbrev  0x00003285      0x2f4 build/milestone1/production/_ext/1241959881/queue.o
 .debug_abbrev  0x00003579      0x381 build/milestone1/production/_ext/1241959881/tasks.o
 .debug_abbrev  0x000038fa       0x1b build/milestone1/production/_ext/1241959881/timers.o
 .debug_abbrev  0x00003915      0x29a build/milestone1/production/_ext/1241959881/event_groups.o
 .debug_abbrev  0x00003baf      0x1ad build/milestone1/production/_ext/1360937237/debug.o
 .debug_abbrev  0x00003d5c       0xf2 build/milestone1/production/_ext/1360937237/motor.o
 .debug_abbrev  0x00003e4e      0x208 build/milestone1/production/_ext/1360937237/myjson.o
 .debug_abbrev  0x00004056       0x28 c:/program files (x86)/microchip/xc32/v1.42/bin/bin/../../lib/gcc/pic32mx/4.8.3/../../../../pic32mx/lib\libpic32.a(default-bootstrap-exception-handler.o)
 .debug_abbrev  0x0000407e       0x28 c:/program files (x86)/microchip/xc32/v1.42/bin/bin/../../lib/gcc/pic32mx/4.8.3/../../../../pic32mx/lib\libpic32.a(default-on-reset.o)
 .debug_abbrev  0x000040a6       0x28 c:/program files (x86)/microchip/xc32/v1.42/bin/bin/../../lib/gcc/pic32mx/4.8.3/../../../../pic32mx/lib\libpic32.a(default-on-bootstrap.o)
 .debug_abbrev  0x000040ce       0x28 c:/program files (x86)/microchip/xc32/v1.42/bin/bin/../../lib/gcc/pic32mx/4.8.3/../../../../pic32mx/lib\libpic32.a(defaultinterrupt.o)
 .debug_abbrev  0x000040f6       0x28 c:/program files (x86)/microchip/xc32/v1.42/bin/bin/../../lib/gcc/pic32mx/4.8.3/../../../../pic32mx/lib\libc.a(atoi.o)
 .debug_abbrev  0x0000411e       0x28 c:/program files (x86)/microchip/xc32/v1.42/bin/bin/../../lib/gcc/pic32mx/4.8.3/../../../../pic32mx/lib\libc.a(strcat.o)
 .debug_abbrev  0x00004146       0x28 c:/program files (x86)/microchip/xc32/v1.42/bin/bin/../../lib/gcc/pic32mx/4.8.3/../../../../pic32mx/lib\libc.a(sprintf_cdnopuxX.eo)
 .debug_abbrev  0x0000416e       0x28 c:/program files (x86)/microchip/xc32/v1.42/bin/bin/../../lib/gcc/pic32mx/4.8.3/../../../../pic32mx/lib\libc.a(doprnt_cdnopuxX.eo)
 .debug_abbrev  0x00004196       0x28 c:/program files (x86)/microchip/xc32/v1.42/bin/bin/../../lib/gcc/pic32mx/4.8.3/../../../../pic32mx/lib\libc.a(_fputc_simple.o)
 .debug_abbrev  0x000041be       0x28 c:/program files (x86)/microchip/xc32/v1.42/bin/bin/../../lib/gcc/pic32mx/4.8.3/../../../../pic32mx/lib\libc.a(_flsbuf_simple.o)
 .debug_abbrev  0x000041e6       0x28 c:/program files (x86)/microchip/xc32/v1.42/bin/bin/../../lib/gcc/pic32mx/4.8.3/../../../../pic32mx/lib\libpic32.a(write.o)
 .debug_abbrev  0x0000420e       0x28 c:/program files (x86)/microchip/xc32/v1.42/bin/bin/../../lib/gcc/pic32mx/4.8.3/../../../../pic32mx/lib\libpic32.a(_mon_putc.o)
 .debug_abbrev  0x00004236      0x138 c:/program files (x86)/microchip/xc32/v1.42/bin/bin/../../lib/gcc/pic32mx/4.8.3\libgcc.a(_udivdi3.o)
 .debug_abbrev  0x0000436e      0x147 c:/program files (x86)/microchip/xc32/v1.42/bin/bin/../../lib/gcc/pic32mx/4.8.3\libgcc.a(_umoddi3.o)

.debug_line     0x00000000     0x9091
 *(.debug_line)
 .debug_line    0x00000000      0xca9 build/milestone1/production/_ext/1864120335/drv_tmr_static.o
 .debug_line    0x00000ca9      0x52e build/milestone1/production/_ext/1864120335/drv_tmr_mapping.o
 .debug_line    0x000011d7      0x460 build/milestone1/production/_ext/192191419/drv_usart_mapping.o
 .debug_line    0x00001637      0x866 build/milestone1/production/_ext/192191419/drv_usart_static.o
 .debug_line    0x00001e9d      0x4d4 build/milestone1/production/_ext/192191419/drv_usart_static_byte_model.o
 .debug_line    0x00002371      0x41d build/milestone1/production/_ext/383799649/sys_clk_static.o
 .debug_line    0x0000278e      0x796 build/milestone1/production/_ext/956857457/sys_ports_static.o
 .debug_line    0x00002f24      0x600 build/milestone1/production/_ext/1555642536/system_init.o
 .debug_line    0x00003524      0x4c9 build/milestone1/production/_ext/1555642536/system_interrupt.o
 .debug_line    0x000039ed      0x1da build/milestone1/production/_ext/1555642536/system_exceptions.o
 .debug_line    0x00003bc7      0x390 build/milestone1/production/_ext/1555642536/system_tasks.o
 .debug_line    0x00003f57      0x126 build/milestone1/production/_ext/1555642536/system_interrupt_a.o
 .debug_line    0x0000407d      0x155 build/milestone1/production/_ext/1555642536/rtos_hooks.o
 .debug_line    0x000041d2      0x3b4 build/milestone1/production/_ext/1360937237/app.o
 .debug_line    0x00004586       0xc7 build/milestone1/production/_ext/1360937237/main.o
 .debug_line    0x0000464d      0x3b0 build/milestone1/production/_ext/1360937237/navigation.o
 .debug_line    0x000049fd      0x373 build/milestone1/production/_ext/1360937237/mapping.o
 .debug_line    0x00004d70      0x764 build/milestone1/production/_ext/1360937237/communication.o
 .debug_line    0x000054d4      0x324 build/milestone1/production/_ext/1360937237/ms2test.o
 .debug_line    0x000057f8      0x2bb build/milestone1/production/_ext/1423261102/osal_freertos.o
 .debug_line    0x00005ab3      0x5c6 build/milestone1/production/_ext/2019779704/sys_devcon.o
 .debug_line    0x00006079      0x471 build/milestone1/production/_ext/2019779704/sys_devcon_pic32mx.o
 .debug_line    0x000064ea      0x38c build/milestone1/production/_ext/1620769490/sys_int_pic32.o
 .debug_line    0x00006876      0x217 build/milestone1/production/_ext/1366647692/heap_1.o
 .debug_line    0x00006a8d      0x23a build/milestone1/production/_ext/1475386849/port.o
 .debug_line    0x00006cc7      0x123 build/milestone1/production/_ext/1475386849/port_asm.o
 .debug_line    0x00006dea       0x1d build/milestone1/production/_ext/1241959881/croutine.o
 .debug_line    0x00006e07      0x1dc build/milestone1/production/_ext/1241959881/list.o
 .debug_line    0x00006fe3      0x496 build/milestone1/production/_ext/1241959881/queue.o
 .debug_line    0x00007479      0x7ba build/milestone1/production/_ext/1241959881/tasks.o
 .debug_line    0x00007c33       0x1d build/milestone1/production/_ext/1241959881/timers.o
 .debug_line    0x00007c50      0x325 build/milestone1/production/_ext/1241959881/event_groups.o
 .debug_line    0x00007f75      0x30f build/milestone1/production/_ext/1360937237/debug.o
 .debug_line    0x00008284      0x23a build/milestone1/production/_ext/1360937237/motor.o
 .debug_line    0x000084be      0x31e build/milestone1/production/_ext/1360937237/myjson.o
 .debug_line    0x000087dc       0xa9 c:/program files (x86)/microchip/xc32/v1.42/bin/bin/../../lib/gcc/pic32mx/4.8.3/../../../../pic32mx/lib\libpic32.a(default-bootstrap-exception-handler.o)
 .debug_line    0x00008885       0x96 c:/program files (x86)/microchip/xc32/v1.42/bin/bin/../../lib/gcc/pic32mx/4.8.3/../../../../pic32mx/lib\libpic32.a(default-on-reset.o)
 .debug_line    0x0000891b       0x9a c:/program files (x86)/microchip/xc32/v1.42/bin/bin/../../lib/gcc/pic32mx/4.8.3/../../../../pic32mx/lib\libpic32.a(default-on-bootstrap.o)
 .debug_line    0x000089b5       0xa8 c:/program files (x86)/microchip/xc32/v1.42/bin/bin/../../lib/gcc/pic32mx/4.8.3/../../../../pic32mx/lib\libpic32.a(defaultinterrupt.o)
 .debug_line    0x00008a5d       0x80 c:/program files (x86)/microchip/xc32/v1.42/bin/bin/../../lib/gcc/pic32mx/4.8.3/../../../../pic32mx/lib\libc.a(atoi.o)
 .debug_line    0x00008add        0x0 c:/program files (x86)/microchip/xc32/v1.42/bin/bin/../../lib/gcc/pic32mx/4.8.3/../../../../pic32mx/lib\libc.a(ctype.o)
 .debug_line    0x00008add       0x82 c:/program files (x86)/microchip/xc32/v1.42/bin/bin/../../lib/gcc/pic32mx/4.8.3/../../../../pic32mx/lib\libc.a(strcat.o)
 .debug_line    0x00008b5f       0x83 c:/program files (x86)/microchip/xc32/v1.42/bin/bin/../../lib/gcc/pic32mx/4.8.3/../../../../pic32mx/lib\libc.a(sprintf_cdnopuxX.eo)
 .debug_line    0x00008be2       0x82 c:/program files (x86)/microchip/xc32/v1.42/bin/bin/../../lib/gcc/pic32mx/4.8.3/../../../../pic32mx/lib\libc.a(doprnt_cdnopuxX.eo)
 .debug_line    0x00008c64       0x81 c:/program files (x86)/microchip/xc32/v1.42/bin/bin/../../lib/gcc/pic32mx/4.8.3/../../../../pic32mx/lib\libc.a(_fputc_simple.o)
 .debug_line    0x00008ce5        0x0 c:/program files (x86)/microchip/xc32/v1.42/bin/bin/../../lib/gcc/pic32mx/4.8.3/../../../../pic32mx/lib\libc.a(_iob.o)
 .debug_line    0x00008ce5       0x82 c:/program files (x86)/microchip/xc32/v1.42/bin/bin/../../lib/gcc/pic32mx/4.8.3/../../../../pic32mx/lib\libc.a(_flsbuf_simple.o)
 .debug_line    0x00008d67       0x8b c:/program files (x86)/microchip/xc32/v1.42/bin/bin/../../lib/gcc/pic32mx/4.8.3/../../../../pic32mx/lib\libpic32.a(write.o)
 .debug_line    0x00008df2       0x8f c:/program files (x86)/microchip/xc32/v1.42/bin/bin/../../lib/gcc/pic32mx/4.8.3/../../../../pic32mx/lib\libpic32.a(_mon_putc.o)
 .debug_line    0x00008e81        0x0 c:/program files (x86)/microchip/xc32/v1.42/bin/bin/../../lib/gcc/pic32mx/4.8.3/../../../../pic32mx/lib\libpic32.a(xc32_uart.o)
 .debug_line    0x00008e81       0xff c:/program files (x86)/microchip/xc32/v1.42/bin/bin/../../lib/gcc/pic32mx/4.8.3\libgcc.a(_udivdi3.o)
 .debug_line    0x00008f80      0x111 c:/program files (x86)/microchip/xc32/v1.42/bin/bin/../../lib/gcc/pic32mx/4.8.3\libgcc.a(_umoddi3.o)

.debug_frame    0x00000000     0x22d8
 *(.debug_frame)
 .debug_frame   0x00000000      0x3a0 build/milestone1/production/_ext/1864120335/drv_tmr_static.o
 .debug_frame   0x000003a0      0x1c8 build/milestone1/production/_ext/1864120335/drv_tmr_mapping.o
 .debug_frame   0x00000568      0x238 build/milestone1/production/_ext/192191419/drv_usart_mapping.o
 .debug_frame   0x000007a0       0xfc build/milestone1/production/_ext/192191419/drv_usart_static.o
 .debug_frame   0x0000089c       0x80 build/milestone1/production/_ext/192191419/drv_usart_static_byte_model.o
 .debug_frame   0x0000091c       0xa0 build/milestone1/production/_ext/383799649/sys_clk_static.o
 .debug_frame   0x000009bc      0x1f0 build/milestone1/production/_ext/956857457/sys_ports_static.o
 .debug_frame   0x00000bac       0x28 build/milestone1/production/_ext/1555642536/system_init.o
 .debug_frame   0x00000bd4       0x90 build/milestone1/production/_ext/1555642536/system_interrupt.o
 .debug_frame   0x00000c64       0x28 build/milestone1/production/_ext/1555642536/system_exceptions.o
 .debug_frame   0x00000c8c       0xa0 build/milestone1/production/_ext/1555642536/system_tasks.o
 .debug_frame   0x00000d2c       0x40 build/milestone1/production/_ext/1555642536/rtos_hooks.o
 .debug_frame   0x00000d6c       0x5c build/milestone1/production/_ext/1360937237/app.o
 .debug_frame   0x00000dc8       0x28 build/milestone1/production/_ext/1360937237/main.o
 .debug_frame   0x00000df0       0x94 build/milestone1/production/_ext/1360937237/navigation.o
 .debug_frame   0x00000e84       0x88 build/milestone1/production/_ext/1360937237/mapping.o
 .debug_frame   0x00000f0c      0x1ec build/milestone1/production/_ext/1360937237/communication.o
 .debug_frame   0x000010f8      0x110 build/milestone1/production/_ext/1360937237/ms2test.o
 .debug_frame   0x00001208      0x150 build/milestone1/production/_ext/1423261102/osal_freertos.o
 .debug_frame   0x00001358       0xe8 build/milestone1/production/_ext/2019779704/sys_devcon.o
 .debug_frame   0x00001440       0x28 build/milestone1/production/_ext/2019779704/sys_devcon_pic32mx.o
 .debug_frame   0x00001468       0x90 build/milestone1/production/_ext/1620769490/sys_int_pic32.o
 .debug_frame   0x000014f8       0x5c build/milestone1/production/_ext/1366647692/heap_1.o
 .debug_frame   0x00001554       0xc0 build/milestone1/production/_ext/1475386849/port.o
 .debug_frame   0x00001614       0x60 build/milestone1/production/_ext/1241959881/list.o
 .debug_frame   0x00001674      0x218 build/milestone1/production/_ext/1241959881/queue.o
 .debug_frame   0x0000188c      0x458 build/milestone1/production/_ext/1241959881/tasks.o
 .debug_frame   0x00001ce4      0x108 build/milestone1/production/_ext/1241959881/event_groups.o
 .debug_frame   0x00001dec       0x94 build/milestone1/production/_ext/1360937237/debug.o
 .debug_frame   0x00001e80       0x80 build/milestone1/production/_ext/1360937237/motor.o
 .debug_frame   0x00001f00      0x1b8 build/milestone1/production/_ext/1360937237/myjson.o
 .debug_frame   0x000020b8       0x2c c:/program files (x86)/microchip/xc32/v1.42/bin/bin/../../lib/gcc/pic32mx/4.8.3/../../../../pic32mx/lib\libpic32.a(default-bootstrap-exception-handler.o)
 .debug_frame   0x000020e4       0x20 c:/program files (x86)/microchip/xc32/v1.42/bin/bin/../../lib/gcc/pic32mx/4.8.3/../../../../pic32mx/lib\libpic32.a(default-on-reset.o)
 .debug_frame   0x00002104       0x20 c:/program files (x86)/microchip/xc32/v1.42/bin/bin/../../lib/gcc/pic32mx/4.8.3/../../../../pic32mx/lib\libpic32.a(default-on-bootstrap.o)
 .debug_frame   0x00002124       0x20 c:/program files (x86)/microchip/xc32/v1.42/bin/bin/../../lib/gcc/pic32mx/4.8.3/../../../../pic32mx/lib\libpic32.a(defaultinterrupt.o)
 .debug_frame   0x00002144       0x20 c:/program files (x86)/microchip/xc32/v1.42/bin/bin/../../lib/gcc/pic32mx/4.8.3/../../../../pic32mx/lib\libc.a(atoi.o)
 .debug_frame   0x00002164       0x20 c:/program files (x86)/microchip/xc32/v1.42/bin/bin/../../lib/gcc/pic32mx/4.8.3/../../../../pic32mx/lib\libc.a(strcat.o)
 .debug_frame   0x00002184       0x28 c:/program files (x86)/microchip/xc32/v1.42/bin/bin/../../lib/gcc/pic32mx/4.8.3/../../../../pic32mx/lib\libc.a(sprintf_cdnopuxX.eo)
 .debug_frame   0x000021ac       0x38 c:/program files (x86)/microchip/xc32/v1.42/bin/bin/../../lib/gcc/pic32mx/4.8.3/../../../../pic32mx/lib\libc.a(doprnt_cdnopuxX.eo)
 .debug_frame   0x000021e4       0x2c c:/program files (x86)/microchip/xc32/v1.42/bin/bin/../../lib/gcc/pic32mx/4.8.3/../../../../pic32mx/lib\libc.a(_fputc_simple.o)
 .debug_frame   0x00002210       0x28 c:/program files (x86)/microchip/xc32/v1.42/bin/bin/../../lib/gcc/pic32mx/4.8.3/../../../../pic32mx/lib\libc.a(_flsbuf_simple.o)
 .debug_frame   0x00002238       0x38 c:/program files (x86)/microchip/xc32/v1.42/bin/bin/../../lib/gcc/pic32mx/4.8.3/../../../../pic32mx/lib\libpic32.a(write.o)
 .debug_frame   0x00002270       0x28 c:/program files (x86)/microchip/xc32/v1.42/bin/bin/../../lib/gcc/pic32mx/4.8.3/../../../../pic32mx/lib\libpic32.a(_mon_putc.o)
 .debug_frame   0x00002298       0x20 c:/program files (x86)/microchip/xc32/v1.42/bin/bin/../../lib/gcc/pic32mx/4.8.3\libgcc.a(_udivdi3.o)
 .debug_frame   0x000022b8       0x20 c:/program files (x86)/microchip/xc32/v1.42/bin/bin/../../lib/gcc/pic32mx/4.8.3\libgcc.a(_umoddi3.o)

.debug_str      0x00000000      0x8b3
 *(.debug_str)
 .debug_str     0x00000000       0x80 build/milestone1/production/_ext/1864120335/drv_tmr_static.o
 .debug_str     0x00000080        0x7 build/milestone1/production/_ext/1864120335/drv_tmr_mapping.o
 .debug_str     0x00000087       0x23 build/milestone1/production/_ext/192191419/drv_usart_mapping.o
 .debug_str     0x000000aa       0xe2 build/milestone1/production/_ext/192191419/drv_usart_static.o
 .debug_str     0x0000018c       0x12 build/milestone1/production/_ext/192191419/drv_usart_static_byte_model.o
 .debug_str     0x0000019e       0x39 build/milestone1/production/_ext/383799649/sys_clk_static.o
 .debug_str     0x000001d7       0x55 build/milestone1/production/_ext/956857457/sys_ports_static.o
 .debug_str     0x0000022c       0x36 build/milestone1/production/_ext/1555642536/system_init.o
 .debug_str     0x00000262       0x25 build/milestone1/production/_ext/1555642536/system_interrupt.o
 .debug_str     0x00000287        0x0 build/milestone1/production/_ext/1555642536/system_exceptions.o
 .debug_str     0x00000287        0x0 build/milestone1/production/_ext/1555642536/system_tasks.o
 .debug_str     0x00000287        0x9 build/milestone1/production/_ext/1555642536/rtos_hooks.o
 .debug_str     0x00000290        0x0 build/milestone1/production/_ext/1360937237/app.o
 .debug_str     0x00000290        0x0 build/milestone1/production/_ext/1360937237/main.o
 .debug_str     0x00000290       0x19 build/milestone1/production/_ext/1360937237/navigation.o
 .debug_str     0x000002a9       0x19 build/milestone1/production/_ext/1360937237/mapping.o
 .debug_str     0x000002c2       0xd2 build/milestone1/production/_ext/1360937237/communication.o
 .debug_str     0x00000394       0x18 build/milestone1/production/_ext/1360937237/ms2test.o
 .debug_str     0x000003ac       0x40 build/milestone1/production/_ext/1423261102/osal_freertos.o
 .debug_str     0x000003ec       0x16 build/milestone1/production/_ext/2019779704/sys_devcon.o
 .debug_str     0x00000402        0x6 build/milestone1/production/_ext/2019779704/sys_devcon_pic32mx.o
 .debug_str     0x00000408       0x2d build/milestone1/production/_ext/1620769490/sys_int_pic32.o
 .debug_str     0x00000435       0x1d build/milestone1/production/_ext/1366647692/heap_1.o
 .debug_str     0x00000452       0x37 build/milestone1/production/_ext/1475386849/port.o
 .debug_str     0x00000489        0x0 build/milestone1/production/_ext/1241959881/croutine.o
 .debug_str     0x00000489       0x2b build/milestone1/production/_ext/1241959881/list.o
 .debug_str     0x000004b4      0x131 build/milestone1/production/_ext/1241959881/queue.o
 .debug_str     0x000005e5      0x186 build/milestone1/production/_ext/1241959881/tasks.o
 .debug_str     0x0000076b        0x0 build/milestone1/production/_ext/1241959881/timers.o
 .debug_str     0x0000076b       0xe6 build/milestone1/production/_ext/1241959881/event_groups.o
 .debug_str     0x00000851        0x7 build/milestone1/production/_ext/1360937237/debug.o
 .debug_str     0x00000858       0x1d build/milestone1/production/_ext/1360937237/motor.o
 .debug_str     0x00000875       0x3e build/milestone1/production/_ext/1360937237/myjson.o
 .debug_str     0x000008b3        0x0 c:/program files (x86)/microchip/xc32/v1.42/bin/bin/../../lib/gcc/pic32mx/4.8.3/../../../../pic32mx/lib\libpic32.a(default-bootstrap-exception-handler.o)
 .debug_str     0x000008b3        0x0 c:/program files (x86)/microchip/xc32/v1.42/bin/bin/../../lib/gcc/pic32mx/4.8.3/../../../../pic32mx/lib\libpic32.a(default-on-reset.o)
 .debug_str     0x000008b3        0x0 c:/program files (x86)/microchip/xc32/v1.42/bin/bin/../../lib/gcc/pic32mx/4.8.3/../../../../pic32mx/lib\libpic32.a(default-on-bootstrap.o)
 .debug_str     0x000008b3        0x0 c:/program files (x86)/microchip/xc32/v1.42/bin/bin/../../lib/gcc/pic32mx/4.8.3/../../../../pic32mx/lib\libpic32.a(defaultinterrupt.o)
 .debug_str     0x000008b3        0x0 c:/program files (x86)/microchip/xc32/v1.42/bin/bin/../../lib/gcc/pic32mx/4.8.3/../../../../pic32mx/lib\libc.a(atoi.o)
 .debug_str     0x000008b3        0x0 c:/program files (x86)/microchip/xc32/v1.42/bin/bin/../../lib/gcc/pic32mx/4.8.3/../../../../pic32mx/lib\libc.a(ctype.o)
 .debug_str     0x000008b3        0x0 c:/program files (x86)/microchip/xc32/v1.42/bin/bin/../../lib/gcc/pic32mx/4.8.3/../../../../pic32mx/lib\libc.a(strcat.o)
 .debug_str     0x000008b3        0x0 c:/program files (x86)/microchip/xc32/v1.42/bin/bin/../../lib/gcc/pic32mx/4.8.3/../../../../pic32mx/lib\libc.a(sprintf_cdnopuxX.eo)
 .debug_str     0x000008b3        0x0 c:/program files (x86)/microchip/xc32/v1.42/bin/bin/../../lib/gcc/pic32mx/4.8.3/../../../../pic32mx/lib\libc.a(doprnt_cdnopuxX.eo)
 .debug_str     0x000008b3        0x0 c:/program files (x86)/microchip/xc32/v1.42/bin/bin/../../lib/gcc/pic32mx/4.8.3/../../../../pic32mx/lib\libc.a(_fputc_simple.o)
 .debug_str     0x000008b3        0x0 c:/program files (x86)/microchip/xc32/v1.42/bin/bin/../../lib/gcc/pic32mx/4.8.3/../../../../pic32mx/lib\libc.a(_iob.o)
 .debug_str     0x000008b3        0x0 c:/program files (x86)/microchip/xc32/v1.42/bin/bin/../../lib/gcc/pic32mx/4.8.3/../../../../pic32mx/lib\libc.a(_flsbuf_simple.o)
 .debug_str     0x000008b3        0x0 c:/program files (x86)/microchip/xc32/v1.42/bin/bin/../../lib/gcc/pic32mx/4.8.3/../../../../pic32mx/lib\libpic32.a(write.o)
 .debug_str     0x000008b3        0x0 c:/program files (x86)/microchip/xc32/v1.42/bin/bin/../../lib/gcc/pic32mx/4.8.3/../../../../pic32mx/lib\libpic32.a(_mon_putc.o)
 .debug_str     0x000008b3        0x0 c:/program files (x86)/microchip/xc32/v1.42/bin/bin/../../lib/gcc/pic32mx/4.8.3/../../../../pic32mx/lib\libpic32.a(xc32_uart.o)
 .debug_str     0x000008b3        0x0 c:/program files (x86)/microchip/xc32/v1.42/bin/bin/../../lib/gcc/pic32mx/4.8.3\libgcc.a(_udivdi3.o)
 .debug_str     0x000008b3        0x0 c:/program files (x86)/microchip/xc32/v1.42/bin/bin/../../lib/gcc/pic32mx/4.8.3\libgcc.a(_umoddi3.o)

.debug_loc      0x00000000     0x9406
 *(.debug_loc)
 .debug_loc     0x00000000      0xb52 build/milestone1/production/_ext/1864120335/drv_tmr_static.o
 .debug_loc     0x00000b52      0x5cf build/milestone1/production/_ext/1864120335/drv_tmr_mapping.o
 .debug_loc     0x00001121      0x69f build/milestone1/production/_ext/192191419/drv_usart_mapping.o
 .debug_loc     0x000017c0      0x575 build/milestone1/production/_ext/192191419/drv_usart_static.o
 .debug_loc     0x00001d35       0x74 build/milestone1/production/_ext/192191419/drv_usart_static_byte_model.o
 .debug_loc     0x00001da9       0x49 build/milestone1/production/_ext/383799649/sys_clk_static.o
 .debug_loc     0x00001df2      0xecf build/milestone1/production/_ext/956857457/sys_ports_static.o
 .debug_loc     0x00002cc1       0x21 build/milestone1/production/_ext/1555642536/system_init.o
 .debug_loc     0x00002ce2       0xc6 build/milestone1/production/_ext/1555642536/system_interrupt.o
 .debug_loc     0x00002da8       0x34 build/milestone1/production/_ext/1555642536/rtos_hooks.o
 .debug_loc     0x00002ddc       0x89 build/milestone1/production/_ext/1360937237/app.o
 .debug_loc     0x00002e65      0x391 build/milestone1/production/_ext/1360937237/navigation.o
 .debug_loc     0x000031f6      0x290 build/milestone1/production/_ext/1360937237/mapping.o
 .debug_loc     0x00003486      0x93d build/milestone1/production/_ext/1360937237/communication.o
 .debug_loc     0x00003dc3      0x11f build/milestone1/production/_ext/1360937237/ms2test.o
 .debug_loc     0x00003ee2      0x40c build/milestone1/production/_ext/1423261102/osal_freertos.o
 .debug_loc     0x000042ee       0xf0 build/milestone1/production/_ext/2019779704/sys_devcon.o
 .debug_loc     0x000043de       0xec build/milestone1/production/_ext/2019779704/sys_devcon_pic32mx.o
 .debug_loc     0x000044ca       0x8d build/milestone1/production/_ext/1620769490/sys_int_pic32.o
 .debug_loc     0x00004557       0x49 build/milestone1/production/_ext/1366647692/heap_1.o
 .debug_loc     0x000045a0       0xea build/milestone1/production/_ext/1475386849/port.o
 .debug_loc     0x0000468a       0x31 build/milestone1/production/_ext/1241959881/list.o
 .debug_loc     0x000046bb      0xeb0 build/milestone1/production/_ext/1241959881/queue.o
 .debug_loc     0x0000556b     0x1471 build/milestone1/production/_ext/1241959881/tasks.o
 .debug_loc     0x000069dc      0x8ea build/milestone1/production/_ext/1241959881/event_groups.o
 .debug_loc     0x000072c6      0x18a build/milestone1/production/_ext/1360937237/debug.o
 .debug_loc     0x00007450      0x254 build/milestone1/production/_ext/1360937237/motor.o
 .debug_loc     0x000076a4      0x8bb build/milestone1/production/_ext/1360937237/myjson.o
 .debug_loc     0x00007f5f      0xa6a c:/program files (x86)/microchip/xc32/v1.42/bin/bin/../../lib/gcc/pic32mx/4.8.3\libgcc.a(_udivdi3.o)
 .debug_loc     0x000089c9      0xa3d c:/program files (x86)/microchip/xc32/v1.42/bin/bin/../../lib/gcc/pic32mx/4.8.3\libgcc.a(_umoddi3.o)

.debug_macinfo
 *(.debug_macinfo)

.debug_weaknames
 *(.debug_weaknames)

.debug_funcnames
 *(.debug_funcnames)

.debug_typenames
 *(.debug_typenames)

.debug_varnames
 *(.debug_varnames)

.debug_pubtypes
 *(.debug_pubtypes)

.debug_ranges   0x00000000     0x1198
 *(.debug_ranges)
 .debug_ranges  0x00000000      0x228 build/milestone1/production/_ext/1864120335/drv_tmr_static.o
 .debug_ranges  0x00000228       0xb8 build/milestone1/production/_ext/1864120335/drv_tmr_mapping.o
 .debug_ranges  0x000002e0       0x98 build/milestone1/production/_ext/192191419/drv_usart_mapping.o
 .debug_ranges  0x00000378       0x98 build/milestone1/production/_ext/192191419/drv_usart_static.o
 .debug_ranges  0x00000410       0x38 build/milestone1/production/_ext/192191419/drv_usart_static_byte_model.o
 .debug_ranges  0x00000448       0x40 build/milestone1/production/_ext/383799649/sys_clk_static.o
 .debug_ranges  0x00000488       0xf8 build/milestone1/production/_ext/956857457/sys_ports_static.o
 .debug_ranges  0x00000580       0x10 build/milestone1/production/_ext/1555642536/system_init.o
 .debug_ranges  0x00000590       0x60 build/milestone1/production/_ext/1555642536/system_interrupt.o
 .debug_ranges  0x000005f0       0x10 build/milestone1/production/_ext/1555642536/system_exceptions.o
 .debug_ranges  0x00000600       0x38 build/milestone1/production/_ext/1555642536/system_tasks.o
 .debug_ranges  0x00000638       0x60 build/milestone1/production/_ext/1555642536/system_interrupt_a.o
 .debug_ranges  0x00000698       0x18 build/milestone1/production/_ext/1555642536/rtos_hooks.o
 .debug_ranges  0x000006b0       0x20 build/milestone1/production/_ext/1360937237/app.o
 .debug_ranges  0x000006d0       0x10 build/milestone1/production/_ext/1360937237/main.o
 .debug_ranges  0x000006e0       0x48 build/milestone1/production/_ext/1360937237/navigation.o
 .debug_ranges  0x00000728       0x60 build/milestone1/production/_ext/1360937237/mapping.o
 .debug_ranges  0x00000788      0x130 build/milestone1/production/_ext/1360937237/communication.o
 .debug_ranges  0x000008b8       0x60 build/milestone1/production/_ext/1360937237/ms2test.o
 .debug_ranges  0x00000918       0x78 build/milestone1/production/_ext/1423261102/osal_freertos.o
 .debug_ranges  0x00000990       0x68 build/milestone1/production/_ext/2019779704/sys_devcon.o
 .debug_ranges  0x000009f8       0x10 build/milestone1/production/_ext/2019779704/sys_devcon_pic32mx.o
 .debug_ranges  0x00000a08       0x50 build/milestone1/production/_ext/1620769490/sys_int_pic32.o
 .debug_ranges  0x00000a58       0x28 build/milestone1/production/_ext/1366647692/heap_1.o
 .debug_ranges  0x00000a80       0x48 build/milestone1/production/_ext/1475386849/port.o
 .debug_ranges  0x00000ac8       0x30 build/milestone1/production/_ext/1241959881/list.o
 .debug_ranges  0x00000af8      0x130 build/milestone1/production/_ext/1241959881/queue.o
 .debug_ranges  0x00000c28      0x1b0 build/milestone1/production/_ext/1241959881/tasks.o
 .debug_ranges  0x00000dd8       0x98 build/milestone1/production/_ext/1241959881/event_groups.o
 .debug_ranges  0x00000e70       0x38 build/milestone1/production/_ext/1360937237/debug.o
 .debug_ranges  0x00000ea8       0x40 build/milestone1/production/_ext/1360937237/motor.o
 .debug_ranges  0x00000ee8       0x80 build/milestone1/production/_ext/1360937237/myjson.o
 .debug_ranges  0x00000f68       0x10 c:/program files (x86)/microchip/xc32/v1.42/bin/bin/../../lib/gcc/pic32mx/4.8.3/../../../../pic32mx/lib\libpic32.a(default-bootstrap-exception-handler.o)
 .debug_ranges  0x00000f78       0x10 c:/program files (x86)/microchip/xc32/v1.42/bin/bin/../../lib/gcc/pic32mx/4.8.3/../../../../pic32mx/lib\libpic32.a(default-on-reset.o)
 .debug_ranges  0x00000f88       0x10 c:/program files (x86)/microchip/xc32/v1.42/bin/bin/../../lib/gcc/pic32mx/4.8.3/../../../../pic32mx/lib\libpic32.a(default-on-bootstrap.o)
 .debug_ranges  0x00000f98       0x10 c:/program files (x86)/microchip/xc32/v1.42/bin/bin/../../lib/gcc/pic32mx/4.8.3/../../../../pic32mx/lib\libpic32.a(defaultinterrupt.o)
 .debug_ranges  0x00000fa8       0x10 c:/program files (x86)/microchip/xc32/v1.42/bin/bin/../../lib/gcc/pic32mx/4.8.3/../../../../pic32mx/lib\libc.a(atoi.o)
 .debug_ranges  0x00000fb8       0x10 c:/program files (x86)/microchip/xc32/v1.42/bin/bin/../../lib/gcc/pic32mx/4.8.3/../../../../pic32mx/lib\libc.a(strcat.o)
 .debug_ranges  0x00000fc8       0x10 c:/program files (x86)/microchip/xc32/v1.42/bin/bin/../../lib/gcc/pic32mx/4.8.3/../../../../pic32mx/lib\libc.a(sprintf_cdnopuxX.eo)
 .debug_ranges  0x00000fd8       0x10 c:/program files (x86)/microchip/xc32/v1.42/bin/bin/../../lib/gcc/pic32mx/4.8.3/../../../../pic32mx/lib\libc.a(doprnt_cdnopuxX.eo)
 .debug_ranges  0x00000fe8       0x10 c:/program files (x86)/microchip/xc32/v1.42/bin/bin/../../lib/gcc/pic32mx/4.8.3/../../../../pic32mx/lib\libc.a(_fputc_simple.o)
 .debug_ranges  0x00000ff8       0x10 c:/program files (x86)/microchip/xc32/v1.42/bin/bin/../../lib/gcc/pic32mx/4.8.3/../../../../pic32mx/lib\libc.a(_flsbuf_simple.o)
 .debug_ranges  0x00001008       0x10 c:/program files (x86)/microchip/xc32/v1.42/bin/bin/../../lib/gcc/pic32mx/4.8.3/../../../../pic32mx/lib\libpic32.a(write.o)
 .debug_ranges  0x00001018       0x10 c:/program files (x86)/microchip/xc32/v1.42/bin/bin/../../lib/gcc/pic32mx/4.8.3/../../../../pic32mx/lib\libpic32.a(_mon_putc.o)
 .debug_ranges  0x00001028       0x98 c:/program files (x86)/microchip/xc32/v1.42/bin/bin/../../lib/gcc/pic32mx/4.8.3\libgcc.a(_udivdi3.o)
 .debug_ranges  0x000010c0       0xd8 c:/program files (x86)/microchip/xc32/v1.42/bin/bin/../../lib/gcc/pic32mx/4.8.3\libgcc.a(_umoddi3.o)

.gnu.attributes
                0x00000000       0x10
 *(.gnu.attributes)
 .gnu.attributes
                0x00000000       0x10 build/milestone1/production/_ext/1864120335/drv_tmr_static.o
 .gnu.attributes
                0x00000010       0x10 build/milestone1/production/_ext/1864120335/drv_tmr_mapping.o
 .gnu.attributes
                0x00000020       0x10 build/milestone1/production/_ext/192191419/drv_usart_mapping.o
 .gnu.attributes
                0x00000030       0x10 build/milestone1/production/_ext/192191419/drv_usart_static.o
 .gnu.attributes
                0x00000040       0x10 build/milestone1/production/_ext/192191419/drv_usart_static_byte_model.o
 .gnu.attributes
                0x00000050       0x10 build/milestone1/production/_ext/383799649/sys_clk_static.o
 .gnu.attributes
                0x00000060       0x10 build/milestone1/production/_ext/956857457/sys_ports_static.o
 .gnu.attributes
                0x00000070       0x10 build/milestone1/production/_ext/1555642536/system_init.o
 .gnu.attributes
                0x00000080       0x10 build/milestone1/production/_ext/1555642536/system_interrupt.o
 .gnu.attributes
                0x00000090       0x10 build/milestone1/production/_ext/1555642536/system_exceptions.o
 .gnu.attributes
                0x000000a0       0x10 build/milestone1/production/_ext/1555642536/system_tasks.o
 .gnu.attributes
                0x000000b0       0x10 build/milestone1/production/_ext/1555642536/rtos_hooks.o
 .gnu.attributes
                0x000000c0       0x10 build/milestone1/production/_ext/1360937237/app.o
 .gnu.attributes
                0x000000d0       0x10 build/milestone1/production/_ext/1360937237/main.o
 .gnu.attributes
                0x000000e0       0x10 build/milestone1/production/_ext/1360937237/navigation.o
 .gnu.attributes
                0x000000f0       0x10 build/milestone1/production/_ext/1360937237/mapping.o
 .gnu.attributes
                0x00000100       0x10 build/milestone1/production/_ext/1360937237/communication.o
 .gnu.attributes
                0x00000110       0x10 build/milestone1/production/_ext/1360937237/ms2test.o
 .gnu.attributes
                0x00000120       0x10 build/milestone1/production/_ext/1423261102/osal_freertos.o
 .gnu.attributes
                0x00000130       0x10 build/milestone1/production/_ext/2019779704/sys_devcon.o
 .gnu.attributes
                0x00000140       0x10 build/milestone1/production/_ext/2019779704/sys_devcon_pic32mx.o
 .gnu.attributes
                0x00000150       0x10 build/milestone1/production/_ext/1620769490/sys_int_pic32.o
 .gnu.attributes
                0x00000160       0x10 build/milestone1/production/_ext/1366647692/heap_1.o
 .gnu.attributes
                0x00000170       0x10 build/milestone1/production/_ext/1475386849/port.o
 .gnu.attributes
                0x00000180       0x10 build/milestone1/production/_ext/1241959881/croutine.o
 .gnu.attributes
                0x00000190       0x10 build/milestone1/production/_ext/1241959881/list.o
 .gnu.attributes
                0x000001a0       0x10 build/milestone1/production/_ext/1241959881/queue.o
 .gnu.attributes
                0x000001b0       0x10 build/milestone1/production/_ext/1241959881/tasks.o
 .gnu.attributes
                0x000001c0       0x10 build/milestone1/production/_ext/1241959881/timers.o
 .gnu.attributes
                0x000001d0       0x10 build/milestone1/production/_ext/1241959881/event_groups.o
 .gnu.attributes
                0x000001e0       0x10 build/milestone1/production/_ext/1360937237/debug.o
 .gnu.attributes
                0x000001f0       0x10 build/milestone1/production/_ext/1360937237/motor.o
 .gnu.attributes
                0x00000200       0x10 build/milestone1/production/_ext/1360937237/myjson.o
 .gnu.attributes
                0x00000210       0x10 c:/program files (x86)/microchip/xc32/v1.42/bin/bin/../../lib/gcc/pic32mx/4.8.3/../../../../pic32mx/lib\libpic32.a(default-bootstrap-exception-handler.o)
 .gnu.attributes
                0x00000220       0x10 c:/program files (x86)/microchip/xc32/v1.42/bin/bin/../../lib/gcc/pic32mx/4.8.3/../../../../pic32mx/lib\libpic32.a(default-on-reset.o)
 .gnu.attributes
                0x00000230       0x10 c:/program files (x86)/microchip/xc32/v1.42/bin/bin/../../lib/gcc/pic32mx/4.8.3/../../../../pic32mx/lib\libpic32.a(default-on-bootstrap.o)
 .gnu.attributes
                0x00000240       0x10 c:/program files (x86)/microchip/xc32/v1.42/bin/bin/../../lib/gcc/pic32mx/4.8.3/../../../../pic32mx/lib\libpic32.a(defaultinterrupt.o)
 .gnu.attributes
                0x00000250       0x10 c:/program files (x86)/microchip/xc32/v1.42/bin/bin/../../lib/gcc/pic32mx/4.8.3/../../../../pic32mx/lib\libc.a(atoi.o)
 .gnu.attributes
                0x00000260       0x10 c:/program files (x86)/microchip/xc32/v1.42/bin/bin/../../lib/gcc/pic32mx/4.8.3/../../../../pic32mx/lib\libc.a(ctype.o)
 .gnu.attributes
                0x00000270       0x10 c:/program files (x86)/microchip/xc32/v1.42/bin/bin/../../lib/gcc/pic32mx/4.8.3/../../../../pic32mx/lib\libc.a(strcat.o)
 .gnu.attributes
                0x00000280       0x10 c:/program files (x86)/microchip/xc32/v1.42/bin/bin/../../lib/gcc/pic32mx/4.8.3/../../../../pic32mx/lib\libc.a(sprintf_cdnopuxX.eo)
 .gnu.attributes
                0x00000290       0x10 c:/program files (x86)/microchip/xc32/v1.42/bin/bin/../../lib/gcc/pic32mx/4.8.3/../../../../pic32mx/lib\libc.a(doprnt_cdnopuxX.eo)
 .gnu.attributes
                0x000002a0       0x10 c:/program files (x86)/microchip/xc32/v1.42/bin/bin/../../lib/gcc/pic32mx/4.8.3/../../../../pic32mx/lib\libc.a(_fputc_simple.o)
 .gnu.attributes
                0x000002b0       0x10 c:/program files (x86)/microchip/xc32/v1.42/bin/bin/../../lib/gcc/pic32mx/4.8.3/../../../../pic32mx/lib\libc.a(_iob.o)
 .gnu.attributes
                0x000002c0       0x10 c:/program files (x86)/microchip/xc32/v1.42/bin/bin/../../lib/gcc/pic32mx/4.8.3/../../../../pic32mx/lib\libc.a(_flsbuf_simple.o)
 .gnu.attributes
                0x000002d0       0x10 c:/program files (x86)/microchip/xc32/v1.42/bin/bin/../../lib/gcc/pic32mx/4.8.3/../../../../pic32mx/lib\libpic32.a(write.o)
 .gnu.attributes
                0x000002e0       0x10 c:/program files (x86)/microchip/xc32/v1.42/bin/bin/../../lib/gcc/pic32mx/4.8.3/../../../../pic32mx/lib\libpic32.a(_mon_putc.o)
 .gnu.attributes
                0x000002f0       0x10 c:/program files (x86)/microchip/xc32/v1.42/bin/bin/../../lib/gcc/pic32mx/4.8.3/../../../../pic32mx/lib\libpic32.a(xc32_uart.o)
 .gnu.attributes
                0x00000300       0x10 c:/program files (x86)/microchip/xc32/v1.42/bin/bin/../../lib/gcc/pic32mx/4.8.3\libgcc.a(_udivdi3.o)
 .gnu.attributes
                0x00000310       0x10 c:/program files (x86)/microchip/xc32/v1.42/bin/bin/../../lib/gcc/pic32mx/4.8.3\libgcc.a(_umoddi3.o)
LOAD c:/program files (x86)/microchip/xc32/v1.42/bin/bin/../../lib/gcc/pic32mx/4.8.3\libgcc.a
START GROUP
LOAD c:/program files (x86)/microchip/xc32/v1.42/bin/bin/../../lib/gcc/pic32mx/4.8.3/../../../../pic32mx/lib\libpic32.a
LOAD c:/program files (x86)/microchip/xc32/v1.42/bin/bin/../../lib/gcc/pic32mx/4.8.3/../../../../pic32mx/lib\libdebug.a
LOAD c:/program files (x86)/microchip/xc32/v1.42/bin/bin/../../lib/gcc/pic32mx/4.8.3/../../../../pic32mx/lib\libpic32.a
LOAD c:/program files (x86)/microchip/xc32/v1.42/bin/bin/../../lib/gcc/pic32mx/4.8.3/../../../../pic32mx/lib\libm.a
LOAD c:/program files (x86)/microchip/xc32/v1.42/bin/bin/../../lib/gcc/pic32mx/4.8.3/../../../../pic32mx/lib\libe.a
LOAD c:/program files (x86)/microchip/xc32/v1.42/bin/bin/../../lib/gcc/pic32mx/4.8.3/../../../../pic32mx/lib\libdsp.a
LOAD c:/program files (x86)/microchip/xc32/v1.42/bin/bin/../../lib/gcc/pic32mx/4.8.3\libgcc.a
LOAD c:/program files (x86)/microchip/xc32/v1.42/bin/bin/../../lib/gcc/pic32mx/4.8.3/../../../../pic32mx/lib\libc.a
LOAD c:/program files (x86)/microchip/xc32/v1.42/bin/bin/../../lib/gcc/pic32mx/4.8.3/../../../../pic32mx/lib\libc.a
LOAD c:/program files (x86)/microchip/xc32/v1.42/bin/bin/../../lib/gcc/pic32mx/4.8.3/../../../../pic32mx/lib\libpic32.a
END GROUP
LOAD c:/program files (x86)/microchip/xc32/v1.42/bin/bin/../../lib/gcc/pic32mx/4.8.3\libgcc.a
OUTPUT(dist/milestone1/production/TestProject.X.production.elf elf32-tradlittlemips)
LOAD stack
LOAD data_init

.reginfo        0x00000000       0x18
 .reginfo       0x00000000       0x18 c:/program files (x86)/microchip/xc32/v1.42/bin/bin/../../lib/gcc/pic32mx/4.8.3/../../../../pic32mx/lib/./proc/32MX795F512L/crt0_mips32r2.o

.stack          0xa0019a28      0x400
 .stack         0xa0019a28      0x400 stack

.bss            0xa00002bc    0x1974c
 .bss           0xa00002bc    0x19000 build/milestone1/production/_ext/1366647692/heap_1.o
 .bss           0xa00192bc      0x640 build/milestone1/production/_ext/1475386849/port.o
                0xa00192bc                xISRStack
 .bss           0xa00198fc       0xc8 build/milestone1/production/_ext/1241959881/tasks.o
 .bss           0xa00199c4       0x44 c:/program files (x86)/microchip/xc32/v1.42/bin/bin/../../lib/gcc/pic32mx/4.8.3/../../../../pic32mx/lib\libc.a(_iob.o)
                0xa00199c4                _sobuf
                0xa00199e4                _sibuf
                0xa0019a04                _outdone

._debug_exception
                0xbfc00480       0x2c
 ._debug_exception
                0xbfc00480       0x2c c:/program files (x86)/microchip/xc32/v1.42/bin/bin/../../lib/gcc/pic32mx/4.8.3/../../../../pic32mx/lib\debug-exception-return.o
                0xbfc00480                __DbgExecReturn

.text._vfprintf_cdnopuxX
                0x9d000000      0xad4
 .text._vfprintf_cdnopuxX
                0x9d000000      0xad4 c:/program files (x86)/microchip/xc32/v1.42/bin/bin/../../lib/gcc/pic32mx/4.8.3/../../../../pic32mx/lib\libc.a(doprnt_cdnopuxX.eo)
                0x9d000000                _vfprintf_cdnopuxX

.text           0x9d000ad4      0xd10
 .text          0x9d000ad4      0x464 c:/program files (x86)/microchip/xc32/v1.42/bin/bin/../../lib/gcc/pic32mx/4.8.3\libgcc.a(_umoddi3.o)
                0x9d000ad4                __umoddi3
 .text          0x9d000f38      0x458 c:/program files (x86)/microchip/xc32/v1.42/bin/bin/../../lib/gcc/pic32mx/4.8.3\libgcc.a(_udivdi3.o)
                0x9d000f38                __udivdi3
 .text          0x9d001390      0x454 build/milestone1/production/_ext/1475386849/port_asm.o
                0x9d001390                vPortTickInterruptHandler
                0x9d00153c                vPortStartFirstTask
                0x9d001604                vPortYieldISR

.text.COMMUNICATION_Tasks
                0x9d0017e4      0x2dc
 .text.COMMUNICATION_Tasks
                0x9d0017e4      0x2dc build/milestone1/production/_ext/1360937237/communication.o
                0x9d0017e4                COMMUNICATION_Tasks

.text.xTaskCreate
                0x9d001ac0      0x2d0
 .text.xTaskCreate
                0x9d001ac0      0x2d0 build/milestone1/production/_ext/1241959881/tasks.o
                0x9d001ac0                xTaskCreate

.text.xQueueGenericReceive
                0x9d001d90      0x264
 .text.xQueueGenericReceive
                0x9d001d90      0x264 build/milestone1/production/_ext/1241959881/queue.o
                0x9d001d90                xQueueGenericReceive

.text.NAVIGATION_Tasks
                0x9d001ff4      0x25c
 .text.NAVIGATION_Tasks
                0x9d001ff4      0x25c build/milestone1/production/_ext/1360937237/navigation.o
                0x9d001ff4                NAVIGATION_Tasks

.text.xQueueGenericSend
                0x9d002250      0x20c
 .text.xQueueGenericSend
                0x9d002250      0x20c build/milestone1/production/_ext/1241959881/queue.o
                0x9d002250                xQueueGenericSend

.DrvTmrInstance0_vector_text
                0x9d00245c      0x1b4
 .DrvTmrInstance0_vector_text
                0x9d00245c      0x1b4 build/milestone1/production/_ext/1555642536/system_interrupt_a.o

.DrvTmrInstance1_vector_text
                0x9d002610      0x1b4
 .DrvTmrInstance1_vector_text
                0x9d002610      0x1b4 build/milestone1/production/_ext/1555642536/system_interrupt_a.o

.DrvTmrInstance2_vector_text
                0x9d0027c4      0x1b4
 .DrvTmrInstance2_vector_text
                0x9d0027c4      0x1b4 build/milestone1/production/_ext/1555642536/system_interrupt_a.o

.DrvTmrInstance3_vector_text
                0x9d002978      0x1b4
 .DrvTmrInstance3_vector_text
                0x9d002978      0x1b4 build/milestone1/production/_ext/1555642536/system_interrupt_a.o

.DrvUsartInstance0_vector_text
                0x9d002b2c      0x1b4
 .DrvUsartInstance0_vector_text
                0x9d002b2c      0x1b4 build/milestone1/production/_ext/1555642536/system_interrupt_a.o

.text.xTaskIncrementTick
                0x9d002ce0      0x198
 .text.xTaskIncrementTick
                0x9d002ce0      0x198 build/milestone1/production/_ext/1241959881/tasks.o
                0x9d002ce0                xTaskIncrementTick

.text.DRV_USART0_Initialize
                0x9d002e78      0x174
 .text.DRV_USART0_Initialize
                0x9d002e78      0x174 build/milestone1/production/_ext/192191419/drv_usart_static.o
                0x9d002e78                DRV_USART0_Initialize

.text           0x9d002fec      0x2d0
 .text          0x9d002fec      0x168 c:/program files (x86)/microchip/xc32/v1.42/bin/bin/../../lib/gcc/pic32mx/4.8.3/../../../../pic32mx/lib\libpic32.a(memcpy.o)
                0x9d002fec                memcpy
 .text          0x9d003154      0x168 c:/program files (x86)/microchip/xc32/v1.42/bin/bin/../../lib/gcc/pic32mx/4.8.3/../../../../pic32mx/lib\libpic32.a(strlen.o)
                0x9d003154                strlen

.text.xTaskResumeAll
                0x9d0032bc      0x148
 .text.xTaskResumeAll
                0x9d0032bc      0x148 build/milestone1/production/_ext/1241959881/tasks.o
                0x9d0032bc                xTaskResumeAll

.text.fputc     0x9d003404      0x144
 .text.fputc    0x9d003404      0x144 c:/program files (x86)/microchip/xc32/v1.42/bin/bin/../../lib/gcc/pic32mx/4.8.3/../../../../pic32mx/lib\libc.a(_fputc_simple.o)
                0x9d003404                fputc

.dinit          0x9d003548      0x130
 .dinit         0x9d003548      0x130 data_init

.text.vTaskPriorityInherit
                0x9d003678      0x12c
 .text.vTaskPriorityInherit
                0x9d003678      0x12c build/milestone1/production/_ext/1241959881/tasks.o
                0x9d003678                vTaskPriorityInherit

.text._flsbuf   0x9d0037a4      0x12c
 .text._flsbuf  0x9d0037a4      0x12c c:/program files (x86)/microchip/xc32/v1.42/bin/bin/../../lib/gcc/pic32mx/4.8.3/../../../../pic32mx/lib\libc.a(_flsbuf_simple.o)
                0x9d0037a4                _flsbuf

.rodata         0x9d0038d0      0x128
 .rodata        0x9d0038d0      0x128 build/milestone1/production/_ext/1555642536/system_exceptions.o

.text.IntHandlerDrvUsartInstance0
                0x9d0039f8      0x114
 .text.IntHandlerDrvUsartInstance0
                0x9d0039f8      0x114 build/milestone1/production/_ext/1555642536/system_interrupt.o
                0x9d0039f8                IntHandlerDrvUsartInstance0

.rodata         0x9d003b0c      0x104
 .rodata        0x9d003b0c      0x104 c:/program files (x86)/microchip/xc32/v1.42/bin/bin/../../lib/gcc/pic32mx/4.8.3/../../../../pic32mx/lib\libc.a(ctype.o)
                0x9d003b0c                _ctype

.text.prvUnlockQueue
                0x9d003c10       0xfc
 .text.prvUnlockQueue
                0x9d003c10       0xfc build/milestone1/production/_ext/1241959881/queue.o

.text.APP_Tasks
                0x9d003d0c       0xf8
 .text.APP_Tasks
                0x9d003d0c       0xf8 build/milestone1/production/_ext/1360937237/app.o
                0x9d003d0c                APP_Tasks

.text.xTaskPriorityDisinherit
                0x9d003e04       0xf8
 .text.xTaskPriorityDisinherit
                0x9d003e04       0xf8 build/milestone1/production/_ext/1241959881/tasks.o
                0x9d003e04                xTaskPriorityDisinherit

.text.prvCopyDataToQueue
                0x9d003efc       0xf4
 .text.prvCopyDataToQueue
                0x9d003efc       0xf4 build/milestone1/production/_ext/1241959881/queue.o

.text.MAPPING_Tasks
                0x9d003ff0       0xf0
 .text.MAPPING_Tasks
                0x9d003ff0       0xf0 build/milestone1/production/_ext/1360937237/mapping.o
                0x9d003ff0                MAPPING_Tasks

.text.xQueueGenericSendFromISR
                0x9d0040e0       0xf0
 .text.xQueueGenericSendFromISR
                0x9d0040e0       0xf0 build/milestone1/production/_ext/1241959881/queue.o
                0x9d0040e0                xQueueGenericSendFromISR

.text.dbgOutputVal
                0x9d0041d0       0xf0
 .text.dbgOutputVal
                0x9d0041d0       0xf0 build/milestone1/production/_ext/1360937237/debug.o
                0x9d0041d0                dbgOutputVal

.rodata         0x9d0042c0       0xec
 .rodata        0x9d0042c0       0xec build/milestone1/production/_ext/1360937237/communication.o

.text.parseInt  0x9d0043ac       0xec
 .text.parseInt
                0x9d0043ac       0xec build/milestone1/production/_ext/1360937237/myjson.o
                0x9d0043ac                parseInt

.text.IntHandlerDrvTmrInstance0
                0x9d004498       0xe8
 .text.IntHandlerDrvTmrInstance0
                0x9d004498       0xe8 build/milestone1/production/_ext/1555642536/system_interrupt.o
                0x9d004498                IntHandlerDrvTmrInstance0

.text.prvAddCurrentTaskToDelayedList
                0x9d004580       0xe4
 .text.prvAddCurrentTaskToDelayedList
                0x9d004580       0xe4 build/milestone1/production/_ext/1241959881/tasks.o

.text.xQueueReceiveFromISR
                0x9d004664       0xe0
 .text.xQueueReceiveFromISR
                0x9d004664       0xe0 build/milestone1/production/_ext/1241959881/queue.o
                0x9d004664                xQueueReceiveFromISR

.text.vTaskSwitchContext
                0x9d004744       0xe0
 .text.vTaskSwitchContext
                0x9d004744       0xe0 build/milestone1/production/_ext/1241959881/tasks.o
                0x9d004744                vTaskSwitchContext

.text.parseUInt8
                0x9d004824       0xe0
 .text.parseUInt8
                0x9d004824       0xe0 build/milestone1/production/_ext/1360937237/myjson.o
                0x9d004824                parseUInt8

.text.SYS_Initialize
                0x9d004904       0xdc
 .text.SYS_Initialize
                0x9d004904       0xdc build/milestone1/production/_ext/1555642536/system_init.o
                0x9d004904                SYS_Initialize

.text.SYS_Tasks
                0x9d0049e0       0xdc
 .text.SYS_Tasks
                0x9d0049e0       0xdc build/milestone1/production/_ext/1555642536/system_tasks.o
                0x9d0049e0                SYS_Tasks

.text.SYS_DEVCON_PerformanceConfig
                0x9d004abc       0xdc
 .text.SYS_DEVCON_PerformanceConfig
                0x9d004abc       0xdc build/milestone1/production/_ext/2019779704/sys_devcon_pic32mx.o
                0x9d004abc                SYS_DEVCON_PerformanceConfig

.text.general_exception
                0x9d004b98       0xdc
 .text.general_exception
                0x9d004b98       0xdc c:/program files (x86)/microchip/xc32/v1.42/bin/bin/../../lib/gcc/pic32mx/4.8.3/../../../../pic32mx/lib\libpic32.a(general-exception.o)
                0x9d004b98                _general_exception_context

.text._mon_putc
                0x9d004c74       0xd4
 .text._mon_putc
                0x9d004c74       0xd4 c:/program files (x86)/microchip/xc32/v1.42/bin/bin/../../lib/gcc/pic32mx/4.8.3/../../../../pic32mx/lib\libpic32.a(_mon_putc.o)
                0x9d004c74                _mon_putc

.rodata         0x9d004d48       0xd0
 .rodata        0x9d004d48       0xd0 c:/program files (x86)/microchip/xc32/v1.42/bin/bin/../../lib/gcc/pic32mx/4.8.3/../../../../pic32mx/lib\libc.a(doprnt_cdnopuxX.eo)

.text.pvPortMalloc
                0x9d004e18       0xc0
 .text.pvPortMalloc
                0x9d004e18       0xc0 build/milestone1/production/_ext/1366647692/heap_1.o
                0x9d004e18                pvPortMalloc

.text.xQueueGenericReset
                0x9d004ed8       0xc0
 .text.xQueueGenericReset
                0x9d004ed8       0xc0 build/milestone1/production/_ext/1241959881/queue.o
                0x9d004ed8                xQueueGenericReset

.text.xTaskRemoveFromEventList
                0x9d004f98       0xbc
 .text.xTaskRemoveFromEventList
                0x9d004f98       0xbc build/milestone1/production/_ext/1241959881/tasks.o
                0x9d004f98                xTaskRemoveFromEventList

.text.prvIdleTask
                0x9d005054       0xb4
 .text.prvIdleTask
                0x9d005054       0xb4 build/milestone1/production/_ext/1241959881/tasks.o

.text.readPublic2
                0x9d005108       0xa8
 .text.readPublic2
                0x9d005108       0xa8 build/milestone1/production/_ext/1360937237/communication.o
                0x9d005108                readPublic2

.text           0x9d0051b0       0xa8
 .text          0x9d0051b0       0xa8 c:/program files (x86)/microchip/xc32/v1.42/bin/bin/../../lib/gcc/pic32mx/4.8.3/../../../../pic32mx/lib\libpic32.a(memset.o)
                0x9d0051b0                memset

.text.atoi      0x9d005258       0xa8
 .text.atoi     0x9d005258       0xa8 c:/program files (x86)/microchip/xc32/v1.42/bin/bin/../../lib/gcc/pic32mx/4.8.3/../../../../pic32mx/lib\libc.a(atoi.o)
                0x9d005258                atoi

.text.xTaskCheckForTimeOut
                0x9d005300       0xa0
 .text.xTaskCheckForTimeOut
                0x9d005300       0xa0 build/milestone1/production/_ext/1241959881/tasks.o
                0x9d005300                xTaskCheckForTimeOut

.text.jsonFindElementFromKey
                0x9d0053a0       0x9c
 .text.jsonFindElementFromKey
                0x9d0053a0       0x9c build/milestone1/production/_ext/1360937237/myjson.o
                0x9d0053a0                jsonFindElementFromKey

.text.write     0x9d00543c       0x9c
 .text.write    0x9d00543c       0x9c c:/program files (x86)/microchip/xc32/v1.42/bin/bin/../../lib/gcc/pic32mx/4.8.3/../../../../pic32mx/lib\libpic32.a(write.o)
                0x9d00543c                write

.text.xQueueGenericCreate
                0x9d0054d8       0x94
 .text.xQueueGenericCreate
                0x9d0054d8       0x94 build/milestone1/production/_ext/1241959881/queue.o
                0x9d0054d8                xQueueGenericCreate

.text.parseCheckSum
                0x9d00556c       0x94
 .text.parseCheckSum
                0x9d00556c       0x94 build/milestone1/production/_ext/1360937237/myjson.o
                0x9d00556c                parseCheckSum

.text.vTaskStartScheduler
                0x9d005600       0x80
 .text.vTaskStartScheduler
                0x9d005600       0x80 build/milestone1/production/_ext/1241959881/tasks.o
                0x9d005600                vTaskStartScheduler

.text.DRV_TMR0_Initialize
                0x9d005680       0x74
 .text.DRV_TMR0_Initialize
                0x9d005680       0x74 build/milestone1/production/_ext/1864120335/drv_tmr_static.o
                0x9d005680                DRV_TMR0_Initialize

.text.DRV_TMR3_Initialize
                0x9d0056f4       0x74
 .text.DRV_TMR3_Initialize
                0x9d0056f4       0x74 build/milestone1/production/_ext/1864120335/drv_tmr_static.o
                0x9d0056f4                DRV_TMR3_Initialize

.text.parseCharacter
                0x9d005768       0x74
 .text.parseCharacter
                0x9d005768       0x74 build/milestone1/production/_ext/1360937237/myjson.o
                0x9d005768                parseCharacter

.text.calcSimpleChecksum
                0x9d0057dc       0x70
 .text.calcSimpleChecksum
                0x9d0057dc       0x70 build/milestone1/production/_ext/1360937237/communication.o
                0x9d0057dc                calcSimpleChecksum

.text.DRV_TMR1_Initialize
                0x9d00584c       0x6c
 .text.DRV_TMR1_Initialize
                0x9d00584c       0x6c build/milestone1/production/_ext/1864120335/drv_tmr_static.o
                0x9d00584c                DRV_TMR1_Initialize

.text.DRV_TMR2_Initialize
                0x9d0058b8       0x6c
 .text.DRV_TMR2_Initialize
                0x9d0058b8       0x6c build/milestone1/production/_ext/1864120335/drv_tmr_static.o
                0x9d0058b8                DRV_TMR2_Initialize

.text.vApplicationSetupTickTimerInterrupt
                0x9d005924       0x6c
 .text.vApplicationSetupTickTimerInterrupt
                0x9d005924       0x6c build/milestone1/production/_ext/1475386849/port.o
                0x9d005924                vApplicationSetupTickTimerInterrupt

.text.vTaskExitCritical
                0x9d005990       0x68
 .text.vTaskExitCritical
                0x9d005990       0x68 build/milestone1/production/_ext/1241959881/tasks.o
                0x9d005990                vTaskExitCritical

.text._sprintf_cdnopuxX
                0x9d0059f8       0x68
 .text._sprintf_cdnopuxX
                0x9d0059f8       0x68 c:/program files (x86)/microchip/xc32/v1.42/bin/bin/../../lib/gcc/pic32mx/4.8.3/../../../../pic32mx/lib\libc.a(sprintf_cdnopuxX.eo)
                0x9d0059f8                _sprintf_cdnopuxX

.text.PID1      0x9d005a60       0x60
 .text.PID1     0x9d005a60       0x60 build/milestone1/production/_ext/1360937237/motor.o
                0x9d005a60                PID1

.text.PID2      0x9d005ac0       0x60
 .text.PID2     0x9d005ac0       0x60 build/milestone1/production/_ext/1360937237/motor.o
                0x9d005ac0                PID2

.text.xPortStartScheduler
                0x9d005b20       0x5c
 .text.xPortStartScheduler
                0x9d005b20       0x5c build/milestone1/production/_ext/1475386849/port.o
                0x9d005b20                xPortStartScheduler

.text.vListInsert
                0x9d005b7c       0x5c
 .text.vListInsert
                0x9d005b7c       0x5c build/milestone1/production/_ext/1241959881/list.o
                0x9d005b7c                vListInsert

.text.SYS_CLK_Initialize
                0x9d005bd8       0x58
 .text.SYS_CLK_Initialize
                0x9d005bd8       0x58 build/milestone1/production/_ext/383799649/sys_clk_static.o
                0x9d005bd8                SYS_CLK_Initialize

.text.SYS_DEVCON_SystemUnlock
                0x9d005c30       0x58
 .text.SYS_DEVCON_SystemUnlock
                0x9d005c30       0x58 build/milestone1/production/_ext/2019779704/sys_devcon.o
                0x9d005c30                SYS_DEVCON_SystemUnlock

.text.xQueueCreateMutex
                0x9d005c88       0x58
 .text.xQueueCreateMutex
                0x9d005c88       0x58 build/milestone1/production/_ext/1241959881/queue.o
                0x9d005c88                xQueueCreateMutex

.text.jsonGetSource
                0x9d005ce0       0x58
 .text.jsonGetSource
                0x9d005ce0       0x58 build/milestone1/production/_ext/1360937237/myjson.o
                0x9d005ce0                jsonGetSource

.text.jsonGetDestination
                0x9d005d38       0x58
 .text.jsonGetDestination
                0x9d005d38       0x58 build/milestone1/production/_ext/1360937237/myjson.o
                0x9d005d38                jsonGetDestination

.text.jsonGetMessageType
                0x9d005d90       0x58
 .text.jsonGetMessageType
                0x9d005d90       0x58 build/milestone1/production/_ext/1360937237/myjson.o
                0x9d005d90                jsonGetMessageType

.text.jsonGetChecksum
                0x9d005de8       0x58
 .text.jsonGetChecksum
                0x9d005de8       0x58 build/milestone1/production/_ext/1360937237/myjson.o
                0x9d005de8                jsonGetChecksum

.text.jsonGetChecksumString
                0x9d005e40       0x58
 .text.jsonGetChecksumString
                0x9d005e40       0x58 build/milestone1/production/_ext/1360937237/myjson.o
                0x9d005e40                jsonGetChecksumString

.text.jsonGetSequenceNumber
                0x9d005e98       0x58
 .text.jsonGetSequenceNumber
                0x9d005e98       0x58 build/milestone1/production/_ext/1360937237/myjson.o
                0x9d005e98                jsonGetSequenceNumber

.text.main_entry
                0x9d005ef0       0x54
 .text.main_entry
                0x9d005ef0       0x54 c:/program files (x86)/microchip/xc32/v1.42/bin/bin/../../lib/gcc/pic32mx/4.8.3/../../../../pic32mx/lib/./proc/32MX795F512L/crt0_mips32r2.o
                0x9d005f24                __crt0_exit

.text.COMMUNICATION_Initialize
                0x9d005f44       0x54
 .text.COMMUNICATION_Initialize
                0x9d005f44       0x54 build/milestone1/production/_ext/1360937237/communication.o
                0x9d005f44                COMMUNICATION_Initialize

.text.pxPortInitialiseStack
                0x9d005f98       0x54
 .text.pxPortInitialiseStack
                0x9d005f98       0x54 build/milestone1/production/_ext/1475386849/port.o
                0x9d005f98                pxPortInitialiseStack

.text.vPortIncrementTick
                0x9d005fec       0x54
 .text.vPortIncrementTick
                0x9d005fec       0x54 build/milestone1/production/_ext/1475386849/port.o
                0x9d005fec                vPortIncrementTick

.rodata         0x9d006040       0x50
 .rodata        0x9d006040       0x50 build/milestone1/production/_ext/1555642536/system_tasks.o

.text.prvCopyDataFromQueue
                0x9d006090       0x50
 .text.prvCopyDataFromQueue
                0x9d006090       0x50 build/milestone1/production/_ext/1241959881/queue.o

.text.vTaskEnterCritical
                0x9d0060e0       0x50
 .text.vTaskEnterCritical
                0x9d0060e0       0x50 build/milestone1/production/_ext/1241959881/tasks.o
                0x9d0060e0                vTaskEnterCritical

.text.IntHandlerDrvTmrInstance3
                0x9d006130       0x48
 .text.IntHandlerDrvTmrInstance3
                0x9d006130       0x48 build/milestone1/production/_ext/1555642536/system_interrupt.o
                0x9d006130                IntHandlerDrvTmrInstance3

.text.writePublic
                0x9d006178       0x48
 .text.writePublic
                0x9d006178       0x48 build/milestone1/production/_ext/1360937237/communication.o
                0x9d006178                writePublic

.text.SYS_DEVCON_SystemLock
                0x9d0061c0       0x48
 .text.SYS_DEVCON_SystemLock
                0x9d0061c0       0x48 build/milestone1/production/_ext/2019779704/sys_devcon.o
                0x9d0061c0                SYS_DEVCON_SystemLock

.text._bootstrap_exception_handler
                0x9d006208       0x48
 .text._bootstrap_exception_handler
                0x9d006208       0x48 c:/program files (x86)/microchip/xc32/v1.42/bin/bin/../../lib/gcc/pic32mx/4.8.3/../../../../pic32mx/lib\libpic32.a(default-bootstrap-exception-handler.o)
                0x9d006208                _bootstrap_exception_handler

.vector_default
                0x9d006250       0x48
 .vector_default
                0x9d006250       0x48 c:/program files (x86)/microchip/xc32/v1.42/bin/bin/../../lib/gcc/pic32mx/4.8.3/../../../../pic32mx/lib\libpic32.a(defaultinterrupt.o)
                0x9d006250                _DefaultInterrupt

.text.uxListRemove
                0x9d006298       0x44
 .text.uxListRemove
                0x9d006298       0x44 build/milestone1/production/_ext/1241959881/list.o
                0x9d006298                uxListRemove

.text           0x9d0062dc       0x44
 .text          0x9d0062dc       0x44 c:/program files (x86)/microchip/xc32/v1.42/bin/bin/../../lib/gcc/pic32mx/4.8.3/../../../../pic32mx/lib\pic32_software_reset.o
                0x9d0062dc                __pic32_software_reset

.text.SYS_PORTS_Initialize
                0x9d006320       0x40
 .text.SYS_PORTS_Initialize
                0x9d006320       0x40 build/milestone1/production/_ext/956857457/sys_ports_static.o
                0x9d006320                SYS_PORTS_Initialize

.text._general_exception_handler
                0x9d006360       0x40
 .text._general_exception_handler
                0x9d006360       0x40 build/milestone1/production/_ext/1555642536/system_exceptions.o
                0x9d006360                _general_exception_handler

.text.DRV_TMR0_Start
                0x9d0063a0       0x3c
 .text.DRV_TMR0_Start
                0x9d0063a0       0x3c build/milestone1/production/_ext/1864120335/drv_tmr_static.o
                0x9d0063a0                DRV_TMR0_Start

.text.DRV_TMR1_Start
                0x9d0063dc       0x3c
 .text.DRV_TMR1_Start
                0x9d0063dc       0x3c build/milestone1/production/_ext/1864120335/drv_tmr_static.o
                0x9d0063dc                DRV_TMR1_Start

.text.DRV_TMR2_Start
                0x9d006418       0x3c
 .text.DRV_TMR2_Start
                0x9d006418       0x3c build/milestone1/production/_ext/1864120335/drv_tmr_static.o
                0x9d006418                DRV_TMR2_Start

.text.DRV_TMR3_Start
                0x9d006454       0x3c
 .text.DRV_TMR3_Start
                0x9d006454       0x3c build/milestone1/production/_ext/1864120335/drv_tmr_static.o
                0x9d006454                DRV_TMR3_Start

.text.APP_Initialize
                0x9d006490       0x3c
 .text.APP_Initialize
                0x9d006490       0x3c build/milestone1/production/_ext/1360937237/app.o
                0x9d006490                APP_Initialize

.text.OSAL_MUTEX_Create
                0x9d0064cc       0x3c
 .text.OSAL_MUTEX_Create
                0x9d0064cc       0x3c build/milestone1/production/_ext/1423261102/osal_freertos.o
                0x9d0064cc                OSAL_MUTEX_Create

.text.uxPortSetInterruptMaskFromISR
                0x9d006508       0x3c
 .text.uxPortSetInterruptMaskFromISR
                0x9d006508       0x3c build/milestone1/production/_ext/1475386849/port.o
                0x9d006508                uxPortSetInterruptMaskFromISR

.text.GetPWMFromValue
                0x9d006544       0x3c
 .text.GetPWMFromValue
                0x9d006544       0x3c build/milestone1/production/_ext/1360937237/motor.o
                0x9d006544                GetPWMFromValue

.text.NAVIGATION_Initialize
                0x9d006580       0x38
 .text.NAVIGATION_Initialize
                0x9d006580       0x38 build/milestone1/production/_ext/1360937237/navigation.o
                0x9d006580                NAVIGATION_Initialize

.text.MAPPING_Initialize
                0x9d0065b8       0x38
 .text.MAPPING_Initialize
                0x9d0065b8       0x38 build/milestone1/production/_ext/1360937237/mapping.o
                0x9d0065b8                MAPPING_Initialize

.text.prvResetNextTaskUnblockTime
                0x9d0065f0       0x38
 .text.prvResetNextTaskUnblockTime
                0x9d0065f0       0x38 build/milestone1/production/_ext/1241959881/tasks.o

.text.vTaskPlaceOnEventList
                0x9d006628       0x38
 .text.vTaskPlaceOnEventList
                0x9d006628       0x38 build/milestone1/production/_ext/1241959881/tasks.o
                0x9d006628                vTaskPlaceOnEventList

.text.DRV_USART_Initialize
                0x9d006660       0x34
 .text.DRV_USART_Initialize
                0x9d006660       0x34 build/milestone1/production/_ext/192191419/drv_usart_mapping.o
                0x9d006660                DRV_USART_Initialize

.text.IntHandlerDrvTmrInstance1
                0x9d006694       0x34
 .text.IntHandlerDrvTmrInstance1
                0x9d006694       0x34 build/milestone1/production/_ext/1555642536/system_interrupt.o
                0x9d006694                IntHandlerDrvTmrInstance1

.text.IntHandlerDrvTmrInstance2
                0x9d0066c8       0x34
 .text.IntHandlerDrvTmrInstance2
                0x9d0066c8       0x34 build/milestone1/production/_ext/1555642536/system_interrupt.o
                0x9d0066c8                IntHandlerDrvTmrInstance2

.text.Motor1SetDirection
                0x9d0066fc       0x34
 .text.Motor1SetDirection
                0x9d0066fc       0x34 build/milestone1/production/_ext/1360937237/motor.o
                0x9d0066fc                Motor1SetDirection

.text.Motor2SetDirection
                0x9d006730       0x34
 .text.Motor2SetDirection
                0x9d006730       0x34 build/milestone1/production/_ext/1360937237/motor.o
                0x9d006730                Motor2SetDirection

.text.Motor2SetPWM
                0x9d006764       0x34
 .text.Motor2SetPWM
                0x9d006764       0x34 build/milestone1/production/_ext/1360937237/motor.o
                0x9d006764                Motor2SetPWM

.text.vListInsertEnd
                0x9d006798       0x30
 .text.vListInsertEnd
                0x9d006798       0x30 build/milestone1/production/_ext/1241959881/list.o
                0x9d006798                vListInsertEnd

.text.dbgOutputLoc
                0x9d0067c8       0x30
 .text.dbgOutputLoc
                0x9d0067c8       0x30 build/milestone1/production/_ext/1360937237/debug.o
                0x9d0067c8                dbgOutputLoc

.text.Motor1SetPWM
                0x9d0067f8       0x30
 .text.Motor1SetPWM
                0x9d0067f8       0x30 build/milestone1/production/_ext/1360937237/motor.o
                0x9d0067f8                Motor1SetPWM

.text.vApplicationStackOverflowHook
                0x9d006828       0x2c
 .text.vApplicationStackOverflowHook
                0x9d006828       0x2c build/milestone1/production/_ext/1555642536/rtos_hooks.o
                0x9d006828                vApplicationStackOverflowHook

.text.vApplicationMallocFailedHook
                0x9d006854       0x2c
 .text.vApplicationMallocFailedHook
                0x9d006854       0x2c build/milestone1/production/_ext/1555642536/rtos_hooks.o
                0x9d006854                vApplicationMallocFailedHook

.text.mapCalculateChecksum
                0x9d006880       0x2c
 .text.mapCalculateChecksum
                0x9d006880       0x2c build/milestone1/production/_ext/1360937237/mapping.o
                0x9d006880                mapCalculateChecksum

.text.commCalculateChecksum
                0x9d0068ac       0x2c
 .text.commCalculateChecksum
                0x9d0068ac       0x2c build/milestone1/production/_ext/1360937237/communication.o
                0x9d0068ac                commCalculateChecksum

.text.prvTaskExitError
                0x9d0068d8       0x2c
 .text.prvTaskExitError
                0x9d0068d8       0x2c build/milestone1/production/_ext/1475386849/port.o

.text.navSendMsgFromISR
                0x9d006904       0x28
 .text.navSendMsgFromISR
                0x9d006904       0x28 build/milestone1/production/_ext/1360937237/navigation.o
                0x9d006904                navSendMsgFromISR

.text.navSendMsg
                0x9d00692c       0x28
 .text.navSendMsg
                0x9d00692c       0x28 build/milestone1/production/_ext/1360937237/navigation.o
                0x9d00692c                navSendMsg

.text.mapSendMsgFromISR
                0x9d006954       0x28
 .text.mapSendMsgFromISR
                0x9d006954       0x28 build/milestone1/production/_ext/1360937237/mapping.o
                0x9d006954                mapSendMsgFromISR

.text.mapSendMsg
                0x9d00697c       0x28
 .text.mapSendMsg
                0x9d00697c       0x28 build/milestone1/production/_ext/1360937237/mapping.o
                0x9d00697c                mapSendMsg

.text.commSendMsgFromISR
                0x9d0069a4       0x28
 .text.commSendMsgFromISR
                0x9d0069a4       0x28 build/milestone1/production/_ext/1360937237/communication.o
                0x9d0069a4                commSendMsgFromISR

.text.commSendMsg
                0x9d0069cc       0x28
 .text.commSendMsg
                0x9d0069cc       0x28 build/milestone1/production/_ext/1360937237/communication.o
                0x9d0069cc                commSendMsg

.text.pvTaskIncrementMutexHeldCount
                0x9d0069f4       0x28
 .text.pvTaskIncrementMutexHeldCount
                0x9d0069f4       0x28 build/milestone1/production/_ext/1241959881/tasks.o
                0x9d0069f4                pvTaskIncrementMutexHeldCount

.text.uartReceiveFromSendQueueInISR
                0x9d006a1c       0x24
 .text.uartReceiveFromSendQueueInISR
                0x9d006a1c       0x24 build/milestone1/production/_ext/1360937237/communication.o
                0x9d006a1c                uartReceiveFromSendQueueInISR

.text._SYS_Tasks
                0x9d006a40       0x20
 .text._SYS_Tasks
                0x9d006a40       0x20 build/milestone1/production/_ext/1555642536/system_tasks.o

.text.main      0x9d006a60       0x20
 .text.main     0x9d006a60       0x20 build/milestone1/production/_ext/1360937237/main.o
                0x9d006a60                main

.text.checkIfSendQueueIsEmpty
                0x9d006a80       0x20
 .text.checkIfSendQueueIsEmpty
                0x9d006a80       0x20 build/milestone1/production/_ext/1360937237/communication.o
                0x9d006a80                checkIfSendQueueIsEmpty

.text.vListInitialise
                0x9d006aa0       0x20
 .text.vListInitialise
                0x9d006aa0       0x20 build/milestone1/production/_ext/1241959881/list.o
                0x9d006aa0                vListInitialise

.text.navCalculateChecksum
                0x9d006ac0       0x1c
 .text.navCalculateChecksum
                0x9d006ac0       0x1c build/milestone1/production/_ext/1360937237/navigation.o
                0x9d006ac0                navCalculateChecksum

.text.SYS_DEVCON_JTAGDisable
                0x9d006adc       0x1c
 .text.SYS_DEVCON_JTAGDisable
                0x9d006adc       0x1c build/milestone1/production/_ext/2019779704/sys_devcon.o
                0x9d006adc                SYS_DEVCON_JTAGDisable

.text.vPortClearInterruptMaskFromISR
                0x9d006af8       0x1c
 .text.vPortClearInterruptMaskFromISR
                0x9d006af8       0x1c build/milestone1/production/_ext/1475386849/port.o
                0x9d006af8                vPortClearInterruptMaskFromISR

.text._COMMUNICATION_Tasks
                0x9d006b14       0x18
 .text._COMMUNICATION_Tasks
                0x9d006b14       0x18 build/milestone1/production/_ext/1555642536/system_tasks.o

.text._MAPPING_Tasks
                0x9d006b2c       0x18
 .text._MAPPING_Tasks
                0x9d006b2c       0x18 build/milestone1/production/_ext/1555642536/system_tasks.o

.text._NAVIGATION_Tasks
                0x9d006b44       0x18
 .text._NAVIGATION_Tasks
                0x9d006b44       0x18 build/milestone1/production/_ext/1555642536/system_tasks.o

.text._APP_Tasks
                0x9d006b5c       0x18
 .text._APP_Tasks
                0x9d006b5c       0x18 build/milestone1/production/_ext/1555642536/system_tasks.o

.text.SYS_INT_Initialize
                0x9d006b74       0x18
 .text.SYS_INT_Initialize
                0x9d006b74       0x18 build/milestone1/production/_ext/1620769490/sys_int_pic32.o
                0x9d006b74                SYS_INT_Initialize

.text.dbgPauseAll
                0x9d006b8c       0x18
 .text.dbgPauseAll
                0x9d006b8c       0x18 build/milestone1/production/_ext/1360937237/debug.o
                0x9d006b8c                dbgPauseAll

.text           0x9d006ba4       0x18
 .text          0x9d006ba4       0x18 c:/program files (x86)/microchip/xc32/v1.42/bin/bin/../../lib/gcc/pic32mx/4.8.3/../../../../pic32mx/lib\libpic32.a(default-nmi-handler.o)
                0x9d006ba4                _nmi_handler

.text.SYS_DEVCON_Initialize
                0x9d006bbc       0x14
 .text.SYS_DEVCON_Initialize
                0x9d006bbc       0x14 build/milestone1/production/_ext/2019779704/sys_devcon.o
                0x9d006bbc                SYS_DEVCON_Initialize

.text.vTaskSuspendAll
                0x9d006bd0       0x14
 .text.vTaskSuspendAll
                0x9d006bd0       0x14 build/milestone1/production/_ext/1241959881/tasks.o
                0x9d006bd0                vTaskSuspendAll

.text.vTaskSetTimeOutState
                0x9d006be4       0x14
 .text.vTaskSetTimeOutState
                0x9d006be4       0x14 build/milestone1/production/_ext/1241959881/tasks.o
                0x9d006be4                vTaskSetTimeOutState

.text.vTaskMissedYield
                0x9d006bf8       0x10
 .text.vTaskMissedYield
                0x9d006bf8       0x10 build/milestone1/production/_ext/1241959881/tasks.o
                0x9d006bf8                vTaskMissedYield

.text.SYS_CLK_SystemFrequencyGet
                0x9d006c08        0xc
 .text.SYS_CLK_SystemFrequencyGet
                0x9d006c08        0xc build/milestone1/production/_ext/383799649/sys_clk_static.o
                0x9d006c08                SYS_CLK_SystemFrequencyGet

.text.SYS_CLK_PeripheralFrequencyGet
                0x9d006c14        0xc
 .text.SYS_CLK_PeripheralFrequencyGet
                0x9d006c14        0xc build/milestone1/production/_ext/383799649/sys_clk_static.o
                0x9d006c14                SYS_CLK_PeripheralFrequencyGet

.text.xQueueIsQueueEmptyFromISR
                0x9d006c20        0xc
 .text.xQueueIsQueueEmptyFromISR
                0x9d006c20        0xc build/milestone1/production/_ext/1241959881/queue.o
                0x9d006c20                xQueueIsQueueEmptyFromISR

.text.automatedTesting
                0x9d006c2c        0x8
 .text.automatedTesting
                0x9d006c2c        0x8 build/milestone1/production/_ext/1360937237/ms2test.o
                0x9d006c2c                automatedTesting

.text.SYS_DEVCON_Tasks
                0x9d006c34        0x8
 .text.SYS_DEVCON_Tasks
                0x9d006c34        0x8 build/milestone1/production/_ext/2019779704/sys_devcon.o
                0x9d006c34                SYS_DEVCON_Tasks

.text.vPortFree
                0x9d006c3c        0x8
 .text.vPortFree
                0x9d006c3c        0x8 build/milestone1/production/_ext/1366647692/heap_1.o
                0x9d006c3c                vPortFree

.text.vListInitialiseItem
                0x9d006c44        0x8
 .text.vListInitialiseItem
                0x9d006c44        0x8 build/milestone1/production/_ext/1241959881/list.o
                0x9d006c44                vListInitialiseItem

.rodata         0x9d006c4c        0x8
 .rodata        0x9d006c4c        0x8 build/milestone1/production/_ext/1241959881/tasks.o

.text._on_reset
                0x9d006c54        0x8
 .text._on_reset
                0x9d006c54        0x8 c:/program files (x86)/microchip/xc32/v1.42/bin/bin/../../lib/gcc/pic32mx/4.8.3/../../../../pic32mx/lib\libpic32.a(default-on-reset.o)
                0x9d006c54                _on_reset

.text._on_bootstrap
                0x9d006c5c        0x8
 .text._on_bootstrap
                0x9d006c5c        0x8 c:/program files (x86)/microchip/xc32/v1.42/bin/bin/../../lib/gcc/pic32mx/4.8.3/../../../../pic32mx/lib\libpic32.a(default-on-bootstrap.o)
                0x9d006c5c                _on_bootstrap

.rodata         0x9d006c64        0x8
 .rodata        0x9d006c64        0x4 build/milestone1/production/_ext/1555642536/system_init.o
                0x9d006c64                sysDevconInit
 .rodata        0x9d006c68        0x4 build/milestone1/production/_ext/1475386849/port.o
                0x9d006c68                xISRStackTop
